---
triple:          'arm64-apple-darwin'
binary-path:     '/Users/bb/bb/cam/code/cam/FSM/Practical_6_new/allaire'
relocations:
  - { offsetInCU: 0x52, offset: 0x52, size: 0x8, addend: 0x0, symName: _x0, symObjAddr: 0x592E0, symBinAddr: 0x100010040, symSize: 0x0 }
  - { offsetInCU: 0x6E, offset: 0x6E, size: 0x8, addend: 0x0, symName: _x1, symObjAddr: 0x7A60, symBinAddr: 0x100010038, symSize: 0x0 }
  - { offsetInCU: 0x83, offset: 0x83, size: 0x8, addend: 0x0, symName: _T, symObjAddr: 0x7A30, symBinAddr: 0x100010008, symSize: 0x0 }
  - { offsetInCU: 0x98, offset: 0x98, size: 0x8, addend: 0x0, symName: _Gamma1, symObjAddr: 0x7A38, symBinAddr: 0x100010010, symSize: 0x0 }
  - { offsetInCU: 0xAD, offset: 0xAD, size: 0x8, addend: 0x0, symName: _Gamma2, symObjAddr: 0x7A40, symBinAddr: 0x100010018, symSize: 0x0 }
  - { offsetInCU: 0xC2, offset: 0xC2, size: 0x8, addend: 0x0, symName: _p_infty1, symObjAddr: 0x7A48, symBinAddr: 0x100010020, symSize: 0x0 }
  - { offsetInCU: 0xD7, offset: 0xD7, size: 0x8, addend: 0x0, symName: _p_infty2, symObjAddr: 0x592F0, symBinAddr: 0x100010050, symSize: 0x0 }
  - { offsetInCU: 0xEC, offset: 0xEC, size: 0x8, addend: 0x0, symName: _nxCells, symObjAddr: 0x7A28, symBinAddr: 0x100010000, symSize: 0x0 }
  - { offsetInCU: 0x108, offset: 0x108, size: 0x8, addend: 0x0, symName: _dx, symObjAddr: 0x592E8, symBinAddr: 0x100010048, symSize: 0x0 }
  - { offsetInCU: 0x11D, offset: 0x11D, size: 0x8, addend: 0x0, symName: _C, symObjAddr: 0x7A50, symBinAddr: 0x100010028, symSize: 0x0 }
  - { offsetInCU: 0x132, offset: 0x132, size: 0x8, addend: 0x0, symName: _nVar, symObjAddr: 0x7A58, symBinAddr: 0x100010030, symSize: 0x0 }
  - { offsetInCU: 0xBB9B, offset: 0xBB9B, size: 0x8, addend: 0x0, symName: __ZNSt3__124__put_character_sequenceB7v160006IcNS_11char_traitsIcEEEERNS_13basic_ostreamIT_T0_EES7_PKS4_m, symObjAddr: 0x3324, symBinAddr: 0x10000710C, symSize: 0x1EC }
  - { offsetInCU: 0xE74C, offset: 0xE74C, size: 0x8, addend: 0x0, symName: __ZNSt3__13minB7v160006IdEERKT_S3_S3_, symObjAddr: 0x944, symBinAddr: 0x10000472C, symSize: 0x2C }
  - { offsetInCU: 0xE78F, offset: 0xE78F, size: 0x8, addend: 0x0, symName: __ZNSt3__14endlB7v160006IcNS_11char_traitsIcEEEERNS_13basic_ostreamIT_T0_EES7_, symObjAddr: 0x1024, symBinAddr: 0x100004E0C, symSize: 0x58 }
  - { offsetInCU: 0xF038, offset: 0xF038, size: 0x8, addend: 0x0, symName: __ZNSt3__1lsB7v160006INS_11char_traitsIcEEEERNS_13basic_ostreamIcT_EES6_PKc, symObjAddr: 0x12F0, symBinAddr: 0x1000050D8, symSize: 0x48 }
  - { offsetInCU: 0xF089, offset: 0xF089, size: 0x8, addend: 0x0, symName: __ZNSt3__122__make_exception_guardB7v160006INS_6vectorINS_5arrayIdLm5EEENS_9allocatorIS3_EEE16__destroy_vectorEEENS_28__exception_guard_exceptionsIT_EES9_, symObjAddr: 0x1538, symBinAddr: 0x100005320, symSize: 0x40 }
  - { offsetInCU: 0xF0BE, offset: 0xF0BE, size: 0x8, addend: 0x0, symName: __ZNSt3__119__debug_db_insert_cB7v160006INS_6vectorINS_5arrayIdLm5EEENS_9allocatorIS3_EEEEEEvPT_, symObjAddr: 0x15AC, symBinAddr: 0x100005394, symSize: 0x10 }
  - { offsetInCU: 0xF0EF, offset: 0xF0EF, size: 0x8, addend: 0x0, symName: __ZNSt3__119__allocate_at_leastB7v160006INS_9allocatorINS_5arrayIdLm5EEEEEEENS_19__allocation_resultINS_16allocator_traitsIT_E7pointerEEERS7_m, symObjAddr: 0x193C, symBinAddr: 0x100005724, symSize: 0x40 }
  - { offsetInCU: 0xF132, offset: 0xF132, size: 0x8, addend: 0x0, symName: __ZNSt3__13minB7v160006ImEERKT_S3_S3_, symObjAddr: 0x1A94, symBinAddr: 0x10000587C, symSize: 0x2C }
  - { offsetInCU: 0xF35F, offset: 0xF35F, size: 0x8, addend: 0x0, symName: __ZNSt3__13minB7v160006ImNS_6__lessImmEEEERKT_S5_S5_T0_, symObjAddr: 0x1B2C, symBinAddr: 0x100005914, symSize: 0x54 }
  - { offsetInCU: 0xF3F4, offset: 0xF3F4, size: 0x8, addend: 0x0, symName: __ZNSt3__120__throw_length_errorB7v160006EPKc, symObjAddr: 0x1C0C, symBinAddr: 0x1000059F4, symSize: 0x64 }
  - { offsetInCU: 0xF41C, offset: 0xF41C, size: 0x8, addend: 0x0, symName: __ZNSt3__117__libcpp_allocateB7v160006Emm, symObjAddr: 0x1D80, symBinAddr: 0x100005B68, symSize: 0x60 }
  - { offsetInCU: 0xF476, offset: 0xF476, size: 0x8, addend: 0x0, symName: __ZNSt3__124__is_overaligned_for_newB7v160006Em, symObjAddr: 0x1DE0, symBinAddr: 0x100005BC8, symSize: 0x20 }
  - { offsetInCU: 0xF4A4, offset: 0xF4A4, size: 0x8, addend: 0x0, symName: __ZNSt3__121__libcpp_operator_newB7v160006IJmSt11align_val_tEEEPvDpT_, symObjAddr: 0x1E00, symBinAddr: 0x100005BE8, symSize: 0x2C }
  - { offsetInCU: 0xF4F1, offset: 0xF4F1, size: 0x8, addend: 0x0, symName: __ZNSt3__121__libcpp_operator_newB7v160006IJmEEEPvDpT_, symObjAddr: 0x1E2C, symBinAddr: 0x100005C14, symSize: 0x24 }
  - { offsetInCU: 0xF52A, offset: 0xF52A, size: 0x8, addend: 0x0, symName: __ZNSt3__112__to_addressB7v160006INS_5arrayIdLm5EEEEEPT_S4_, symObjAddr: 0x1F48, symBinAddr: 0x100005D30, symSize: 0x14 }
  - { offsetInCU: 0xF55F, offset: 0xF55F, size: 0x8, addend: 0x0, symName: __ZNSt3__118__debug_db_erase_cB7v160006INS_6vectorINS_5arrayIdLm5EEENS_9allocatorIS3_EEEEEEvPT_, symObjAddr: 0x22AC, symBinAddr: 0x100006094, symSize: 0x10 }
  - { offsetInCU: 0xF590, offset: 0xF590, size: 0x8, addend: 0x0, symName: __ZNSt3__119__libcpp_deallocateB7v160006EPvmm, symObjAddr: 0x2450, symBinAddr: 0x100006238, symSize: 0x60 }
  - { offsetInCU: 0xF5F5, offset: 0xF5F5, size: 0x8, addend: 0x0, symName: __ZNSt3__127__do_deallocate_handle_sizeB7v160006IJSt11align_val_tEEEvPvmDpT_, symObjAddr: 0x24B0, symBinAddr: 0x100006298, symSize: 0x30 }
  - { offsetInCU: 0xF648, offset: 0xF648, size: 0x8, addend: 0x0, symName: __ZNSt3__127__do_deallocate_handle_sizeB7v160006IJEEEvPvmDpT_, symObjAddr: 0x24E0, symBinAddr: 0x1000062C8, symSize: 0x28 }
  - { offsetInCU: 0xF686, offset: 0xF686, size: 0x8, addend: 0x0, symName: __ZNSt3__124__libcpp_operator_deleteB7v160006IJPvSt11align_val_tEEEvDpT_, symObjAddr: 0x2508, symBinAddr: 0x1000062F0, symSize: 0x2C }
  - { offsetInCU: 0xF6CF, offset: 0xF6CF, size: 0x8, addend: 0x0, symName: __ZNSt3__124__libcpp_operator_deleteB7v160006IJPvEEEvDpT_, symObjAddr: 0x2534, symBinAddr: 0x10000631C, symSize: 0x24 }
  - { offsetInCU: 0xF704, offset: 0xF704, size: 0x8, addend: 0x0, symName: __ZNSt3__130__uninitialized_allocator_copyB7v160006INS_9allocatorINS_5arrayIdLm5EEEEEPS3_S5_S5_EET2_RT_T0_T1_S6_, symObjAddr: 0x279C, symBinAddr: 0x100006584, symSize: 0xF4 }
  - { offsetInCU: 0xF7A2, offset: 0xF7A2, size: 0x8, addend: 0x0, symName: __ZNSt3__122__make_exception_guardB7v160006INS_29_AllocatorDestroyRangeReverseINS_9allocatorINS_5arrayIdLm5EEEEEPS4_EEEENS_28__exception_guard_exceptionsIT_EES9_, symObjAddr: 0x2890, symBinAddr: 0x100006678, symSize: 0x4C }
  - { offsetInCU: 0xF7D8, offset: 0xF7D8, size: 0x8, addend: 0x0, symName: __ZNSt3__119__allocator_destroyB7v160006INS_9allocatorINS_5arrayIdLm5EEEEENS_16reverse_iteratorIPS3_EES7_EEvRT_T0_T1_, symObjAddr: 0x2B24, symBinAddr: 0x10000690C, symSize: 0x70 }
  - { offsetInCU: 0xF83B, offset: 0xF83B, size: 0x8, addend: 0x0, symName: __ZNSt3__1neB7v160006IPNS_5arrayIdLm5EEES3_EEbRKNS_16reverse_iteratorIT_EERKNS4_IT0_EE, symObjAddr: 0x2BC8, symBinAddr: 0x1000069B0, symSize: 0x48 }
  - { offsetInCU: 0xF887, offset: 0xF887, size: 0x8, addend: 0x0, symName: __ZNSt3__112__to_addressB7v160006INS_16reverse_iteratorIPNS_5arrayIdLm5EEEEEvEENS_5decayIDTclsr19__to_address_helperIT_EE6__callclsr3stdE7declvalIRKS7_EEEEE4typeES9_, symObjAddr: 0x2C10, symBinAddr: 0x1000069F8, symSize: 0x24 }
  - { offsetInCU: 0xF8E6, offset: 0xF8E6, size: 0x8, addend: 0x0, symName: __ZNSt3__115__debug_db_swapB7v160006INS_6vectorINS_5arrayIdLm5EEENS_9allocatorIS3_EEEEEEvPT_S8_, symObjAddr: 0x2E7C, symBinAddr: 0x100006C64, symSize: 0x14 }
  - { offsetInCU: 0xF925, offset: 0xF925, size: 0x8, addend: 0x0, symName: __ZNSt3__125__debug_db_invalidate_allB7v160006INS_6vectorINS_5arrayIdLm5EEENS_9allocatorIS3_EEEEEEvPT_, symObjAddr: 0x2FB4, symBinAddr: 0x100006D9C, symSize: 0x10 }
  - { offsetInCU: 0xF956, offset: 0xF956, size: 0x8, addend: 0x0, symName: __ZNSt3__13minB7v160006IdNS_6__lessIddEEEERKT_S5_S5_T0_, symObjAddr: 0x3040, symBinAddr: 0x100006E28, symSize: 0x54 }
  - { offsetInCU: 0xF9EB, offset: 0xF9EB, size: 0x8, addend: 0x0, symName: __ZNSt3__19use_facetB7v160006INS_5ctypeIcEEEERKT_RKNS_6localeE, symObjAddr: 0x314C, symBinAddr: 0x100006F34, symSize: 0x2C }
  - { offsetInCU: 0xFEBA, offset: 0xFEBA, size: 0x8, addend: 0x0, symName: __ZNSt3__116__pad_and_outputB7v160006IcNS_11char_traitsIcEEEENS_19ostreambuf_iteratorIT_T0_EES6_PKS4_S8_S8_RNS_8ios_baseES4_, symObjAddr: 0x3560, symBinAddr: 0x100007348, symSize: 0x240 }
  - { offsetInCU: 0xFF89, offset: 0xFF89, size: 0x8, addend: 0x0, symName: __ZNSt3__119__debug_db_insert_cB7v160006INS_12basic_stringIcNS_11char_traitsIcEENS_9allocatorIcEEEEEEvPT_, symObjAddr: 0x39E8, symBinAddr: 0x1000077D0, symSize: 0x10 }
  - { offsetInCU: 0xFFBA, offset: 0xFFBA, size: 0x8, addend: 0x0, symName: __ZNSt3__112__to_addressB7v160006IcEEPT_S2_, symObjAddr: 0x3AB4, symBinAddr: 0x10000789C, symSize: 0x14 }
  - { offsetInCU: 0x10022, offset: 0x10022, size: 0x8, addend: 0x0, symName: __ZNSt3__118__constexpr_strlenB7v160006EPKc, symObjAddr: 0x3CE0, symBinAddr: 0x100007AC8, symSize: 0x24 }
  - { offsetInCU: 0x1004E, offset: 0x1004E, size: 0x8, addend: 0x0, symName: __ZNSt3__13tieB7v160006IJddEEENS_5tupleIJDpRT_EEES4_, symObjAddr: 0x424C, symBinAddr: 0x100008034, symSize: 0x38 }
  - { offsetInCU: 0x10854, offset: 0x10854, size: 0x8, addend: 0x0, symName: __ZNSt3__13tieB7v160006IJKdS1_S1_S1_S1_EEENS_5tupleIJDpRT_EEES5_, symObjAddr: 0x42C0, symBinAddr: 0x1000080A8, symSize: 0x50 }
  - { offsetInCU: 0x108DD, offset: 0x108DD, size: 0x8, addend: 0x0, symName: __ZNSt3__13tieB7v160006IJdddddEEENS_5tupleIJDpRT_EEES4_, symObjAddr: 0x4310, symBinAddr: 0x1000080F8, symSize: 0x50 }
  - { offsetInCU: 0x11725, offset: 0x11725, size: 0x8, addend: 0x0, symName: __ZNSt3__127__memberwise_forward_assignB7v160006INS_5tupleIJRdS2_EEENS1_IJddEEEJddEJLm0ELm1EEEEvRT_OT0_NS_13__tuple_typesIJDpT1_EEENS_15__tuple_indicesIJXspT2_EEEE, symObjAddr: 0x4514, symBinAddr: 0x1000082FC, symSize: 0x80 }
  - { offsetInCU: 0x117A8, offset: 0x117A8, size: 0x8, addend: 0x0, symName: __ZNSt3__19__swallowB7v160006IJiiEEEvDpOT_, symObjAddr: 0x4594, symBinAddr: 0x10000837C, symSize: 0x14 }
  - { offsetInCU: 0x117E9, offset: 0x117E9, size: 0x8, addend: 0x0, symName: __ZNSt3__13getB7v160006ILm0EJddEEERNS_13tuple_elementIXT_ENS_5tupleIJDpT0_EEEE4typeERS5_, symObjAddr: 0x45A8, symBinAddr: 0x100008390, symSize: 0x24 }
  - { offsetInCU: 0x11830, offset: 0x11830, size: 0x8, addend: 0x0, symName: __ZNSt3__13getB7v160006ILm0EJRdS1_EEERNS_13tuple_elementIXT_ENS_5tupleIJDpT0_EEEE4typeERS6_, symObjAddr: 0x45CC, symBinAddr: 0x1000083B4, symSize: 0x24 }
  - { offsetInCU: 0x11877, offset: 0x11877, size: 0x8, addend: 0x0, symName: __ZNSt3__13getB7v160006ILm1EJddEEERNS_13tuple_elementIXT_ENS_5tupleIJDpT0_EEEE4typeERS5_, symObjAddr: 0x45F0, symBinAddr: 0x1000083D8, symSize: 0x28 }
  - { offsetInCU: 0x118BE, offset: 0x118BE, size: 0x8, addend: 0x0, symName: __ZNSt3__13getB7v160006ILm1EJRdS1_EEERNS_13tuple_elementIXT_ENS_5tupleIJDpT0_EEEE4typeERS6_, symObjAddr: 0x4618, symBinAddr: 0x100008400, symSize: 0x28 }
  - { offsetInCU: 0x11957, offset: 0x11957, size: 0x8, addend: 0x0, symName: __ZNSt3__127__memberwise_forward_assignB7v160006INS_5tupleIJRdS2_S2_S2_S2_EEENS1_IJRKdS5_S5_S5_S5_EEEJS5_S5_S5_S5_S5_EJLm0ELm1ELm2ELm3ELm4EEEEvRT_OT0_NS_13__tuple_typesIJDpT1_EEENS_15__tuple_indicesIJXspT2_EEEE, symObjAddr: 0x4A98, symBinAddr: 0x100008880, symSize: 0x110 }
  - { offsetInCU: 0x119FB, offset: 0x119FB, size: 0x8, addend: 0x0, symName: __ZNSt3__19__swallowB7v160006IJiiiiiEEEvDpOT_, symObjAddr: 0x4BA8, symBinAddr: 0x100008990, symSize: 0x20 }
  - { offsetInCU: 0x11A6C, offset: 0x11A6C, size: 0x8, addend: 0x0, symName: __ZNSt3__13getB7v160006ILm0EJRKdS2_S2_S2_S2_EEERNS_13tuple_elementIXT_ENS_5tupleIJDpT0_EEEE4typeERS7_, symObjAddr: 0x4BC8, symBinAddr: 0x1000089B0, symSize: 0x24 }
  - { offsetInCU: 0x11AC2, offset: 0x11AC2, size: 0x8, addend: 0x0, symName: __ZNSt3__13getB7v160006ILm0EJRdS1_S1_S1_S1_EEERNS_13tuple_elementIXT_ENS_5tupleIJDpT0_EEEE4typeERS6_, symObjAddr: 0x4BEC, symBinAddr: 0x1000089D4, symSize: 0x24 }
  - { offsetInCU: 0x11B18, offset: 0x11B18, size: 0x8, addend: 0x0, symName: __ZNSt3__13getB7v160006ILm1EJRKdS2_S2_S2_S2_EEERNS_13tuple_elementIXT_ENS_5tupleIJDpT0_EEEE4typeERS7_, symObjAddr: 0x4C10, symBinAddr: 0x1000089F8, symSize: 0x28 }
  - { offsetInCU: 0x11B6E, offset: 0x11B6E, size: 0x8, addend: 0x0, symName: __ZNSt3__13getB7v160006ILm1EJRdS1_S1_S1_S1_EEERNS_13tuple_elementIXT_ENS_5tupleIJDpT0_EEEE4typeERS6_, symObjAddr: 0x4C38, symBinAddr: 0x100008A20, symSize: 0x28 }
  - { offsetInCU: 0x11BC4, offset: 0x11BC4, size: 0x8, addend: 0x0, symName: __ZNSt3__13getB7v160006ILm2EJRKdS2_S2_S2_S2_EEERNS_13tuple_elementIXT_ENS_5tupleIJDpT0_EEEE4typeERS7_, symObjAddr: 0x4C60, symBinAddr: 0x100008A48, symSize: 0x28 }
  - { offsetInCU: 0x11C1A, offset: 0x11C1A, size: 0x8, addend: 0x0, symName: __ZNSt3__13getB7v160006ILm2EJRdS1_S1_S1_S1_EEERNS_13tuple_elementIXT_ENS_5tupleIJDpT0_EEEE4typeERS6_, symObjAddr: 0x4C88, symBinAddr: 0x100008A70, symSize: 0x28 }
  - { offsetInCU: 0x11C70, offset: 0x11C70, size: 0x8, addend: 0x0, symName: __ZNSt3__13getB7v160006ILm3EJRKdS2_S2_S2_S2_EEERNS_13tuple_elementIXT_ENS_5tupleIJDpT0_EEEE4typeERS7_, symObjAddr: 0x4CB0, symBinAddr: 0x100008A98, symSize: 0x28 }
  - { offsetInCU: 0x11CC6, offset: 0x11CC6, size: 0x8, addend: 0x0, symName: __ZNSt3__13getB7v160006ILm3EJRdS1_S1_S1_S1_EEERNS_13tuple_elementIXT_ENS_5tupleIJDpT0_EEEE4typeERS6_, symObjAddr: 0x4CD8, symBinAddr: 0x100008AC0, symSize: 0x28 }
  - { offsetInCU: 0x11D1C, offset: 0x11D1C, size: 0x8, addend: 0x0, symName: __ZNSt3__13getB7v160006ILm4EJRKdS2_S2_S2_S2_EEERNS_13tuple_elementIXT_ENS_5tupleIJDpT0_EEEE4typeERS7_, symObjAddr: 0x4D00, symBinAddr: 0x100008AE8, symSize: 0x28 }
  - { offsetInCU: 0x11D72, offset: 0x11D72, size: 0x8, addend: 0x0, symName: __ZNSt3__13getB7v160006ILm4EJRdS1_S1_S1_S1_EEERNS_13tuple_elementIXT_ENS_5tupleIJDpT0_EEEE4typeERS6_, symObjAddr: 0x4D28, symBinAddr: 0x100008B10, symSize: 0x28 }
  - { offsetInCU: 0x11DC8, offset: 0x11DC8, size: 0x8, addend: 0x0, symName: __ZNSt3__127__memberwise_forward_assignB7v160006INS_5tupleIJRdS2_S2_S2_S2_EEES3_JS2_S2_S2_S2_S2_EJLm0ELm1ELm2ELm3ELm4EEEEvRT_OT0_NS_13__tuple_typesIJDpT1_EEENS_15__tuple_indicesIJXspT2_EEEE, symObjAddr: 0x4E10, symBinAddr: 0x100008BF8, symSize: 0x110 }
  - { offsetInCU: 0x11E6C, offset: 0x11E6C, size: 0x8, addend: 0x0, symName: __ZNSt3__13maxB7v160006IdEERKT_S3_S3_, symObjAddr: 0x5504, symBinAddr: 0x1000092EC, symSize: 0x2C }
  - { offsetInCU: 0x11EAF, offset: 0x11EAF, size: 0x8, addend: 0x0, symName: __ZNSt3__13maxB7v160006IdNS_6__lessIddEEEERKT_S5_S5_T0_, symObjAddr: 0x5530, symBinAddr: 0x100009318, symSize: 0x54 }
  - { offsetInCU: 0x11F09, offset: 0x11F09, size: 0x8, addend: 0x0, symName: __ZNSt3__1eqB7v160006IcNS_11char_traitsIcEENS_9allocatorIcEEEEbRKNS_12basic_stringIT_T0_T1_EEPKS6_, symObjAddr: 0x584C, symBinAddr: 0x100009634, symSize: 0xAC }
  - { offsetInCU: 0x11F70, offset: 0x11F70, size: 0x8, addend: 0x0, symName: __ZNSt3__122__make_exception_guardB7v160006INS_6vectorIdNS_9allocatorIdEEE16__destroy_vectorEEENS_28__exception_guard_exceptionsIT_EES7_, symObjAddr: 0x66A4, symBinAddr: 0x10000A48C, symSize: 0x40 }
  - { offsetInCU: 0x11FA5, offset: 0x11FA5, size: 0x8, addend: 0x0, symName: __ZNSt3__119__debug_db_insert_cB7v160006INS_6vectorIdNS_9allocatorIdEEEEEEvPT_, symObjAddr: 0x6718, symBinAddr: 0x10000A500, symSize: 0x10 }
  - { offsetInCU: 0x11FD6, offset: 0x11FD6, size: 0x8, addend: 0x0, symName: __ZNSt3__119__allocate_at_leastB7v160006INS_9allocatorIdEEEENS_19__allocation_resultINS_16allocator_traitsIT_E7pointerEEERS5_m, symObjAddr: 0x6AA0, symBinAddr: 0x10000A888, symSize: 0x40 }
  - { offsetInCU: 0x12019, offset: 0x12019, size: 0x8, addend: 0x0, symName: __ZNSt3__112__to_addressB7v160006IdEEPT_S2_, symObjAddr: 0x6DC4, symBinAddr: 0x10000ABAC, symSize: 0x14 }
  - { offsetInCU: 0x1204E, offset: 0x1204E, size: 0x8, addend: 0x0, symName: __ZNSt3__118__debug_db_erase_cB7v160006INS_6vectorIdNS_9allocatorIdEEEEEEvPT_, symObjAddr: 0x70F4, symBinAddr: 0x10000AEDC, symSize: 0x10 }
  - { offsetInCU: 0x125ED, offset: 0x125ED, size: 0x8, addend: 0x0, symName: __ZSt28__throw_bad_array_new_lengthB7v160006v, symObjAddr: 0x1D4C, symBinAddr: 0x100005B34, symSize: 0x34 }
  - { offsetInCU: 0x15329, offset: 0x15329, size: 0x8, addend: 0x0, symName: __Z6solverRNSt3__16vectorINS_5arrayIdLm5EEENS_9allocatorIS2_EEEENS_12basic_stringIcNS_11char_traitsIcEENS3_IcEEEE, symObjAddr: 0x0, symBinAddr: 0x100003DE8, symSize: 0x774 }
  - { offsetInCU: 0x1542F, offset: 0x1542F, size: 0x8, addend: 0x0, symName: __ZNSt3__16vectorINS_5arrayIdLm5EEENS_9allocatorIS2_EEEC1Em, symObjAddr: 0x774, symBinAddr: 0x10000455C, symSize: 0x34 }
  - { offsetInCU: 0x1546A, offset: 0x1546A, size: 0x8, addend: 0x0, symName: __ZNSt3__16vectorINS_5arrayIdLm5EEENS_9allocatorIS2_EEEC1ERKS5_, symObjAddr: 0x7A8, symBinAddr: 0x100004590, symSize: 0x34 }
  - { offsetInCU: 0x154A4, offset: 0x154A4, size: 0x8, addend: 0x0, symName: __Z20primitiveToConservedRKNSt3__16vectorINS_5arrayIdLm5EEENS_9allocatorIS2_EEEE, symObjAddr: 0x7DC, symBinAddr: 0x1000045C4, symSize: 0x108 }
  - { offsetInCU: 0x154FE, offset: 0x154FE, size: 0x8, addend: 0x0, symName: __ZNSt3__16vectorINS_5arrayIdLm5EEENS_9allocatorIS2_EEEaSB7v160006EOS5_, symObjAddr: 0x8E4, symBinAddr: 0x1000046CC, symSize: 0x34 }
  - { offsetInCU: 0x15535, offset: 0x15535, size: 0x8, addend: 0x0, symName: __ZNSt3__16vectorINS_5arrayIdLm5EEENS_9allocatorIS2_EEED1B7v160006Ev, symObjAddr: 0x918, symBinAddr: 0x100004700, symSize: 0x2C }
  - { offsetInCU: 0x1555E, offset: 0x1555E, size: 0x8, addend: 0x0, symName: __Z15calc_dt_AllaireRKNSt3__16vectorINS_5arrayIdLm5EEENS_9allocatorIS2_EEEE, symObjAddr: 0x970, symBinAddr: 0x100004758, symSize: 0x194 }
  - { offsetInCU: 0x15651, offset: 0x15651, size: 0x8, addend: 0x0, symName: __Z14transmissiveBCRNSt3__16vectorINS_5arrayIdLm5EEENS_9allocatorIS2_EEEE, symObjAddr: 0xB04, symBinAddr: 0x1000048EC, symSize: 0xDC }
  - { offsetInCU: 0x15698, offset: 0x15698, size: 0x8, addend: 0x0, symName: __Z6updateRNSt3__16vectorINS_5arrayIdLm5EEENS_9allocatorIS2_EEEES6_dNS_12basic_stringIcNS_11char_traitsIcEENS3_IcEEEE, symObjAddr: 0xBE0, symBinAddr: 0x1000049C8, symSize: 0x418 }
  - { offsetInCU: 0x157C1, offset: 0x157C1, size: 0x8, addend: 0x0, symName: __ZNSt3__113basic_ostreamIcNS_11char_traitsIcEEElsB7v160006EPFRS3_S4_E, symObjAddr: 0xFF8, symBinAddr: 0x100004DE0, symSize: 0x2C }
  - { offsetInCU: 0x157F4, offset: 0x157F4, size: 0x8, addend: 0x0, symName: __Z20conservedToPrimitiveRKNSt3__16vectorINS_5arrayIdLm5EEENS_9allocatorIS2_EEEE, symObjAddr: 0x107C, symBinAddr: 0x100004E64, symSize: 0x108 }
  - { offsetInCU: 0x158E8, offset: 0x158E8, size: 0x8, addend: 0x0, symName: __ZNSt3__114basic_ofstreamIcNS_11char_traitsIcEEEC1EPKcj, symObjAddr: 0x1184, symBinAddr: 0x100004F6C, symSize: 0x16C }
  - { offsetInCU: 0x15932, offset: 0x15932, size: 0x8, addend: 0x0, symName: __ZNSt3__16vectorINS_5arrayIdLm5EEENS_9allocatorIS2_EEEixB7v160006Em, symObjAddr: 0x1338, symBinAddr: 0x100005120, symSize: 0x2C }
  - { offsetInCU: 0x15969, offset: 0x15969, size: 0x8, addend: 0x0, symName: __ZNSt3__15arrayIdLm5EEixB7v160006Em, symObjAddr: 0x1364, symBinAddr: 0x10000514C, symSize: 0x20 }
  - { offsetInCU: 0x1599D, offset: 0x1599D, size: 0x8, addend: 0x0, symName: __ZNSt3__114basic_ofstreamIcNS_11char_traitsIcEEE5closeEv, symObjAddr: 0x1384, symBinAddr: 0x10000516C, symSize: 0x58 }
  - { offsetInCU: 0x159CA, offset: 0x159CA, size: 0x8, addend: 0x0, symName: __ZNSt3__114basic_ofstreamIcNS_11char_traitsIcEEED1Ev, symObjAddr: 0x13DC, symBinAddr: 0x1000051C4, symSize: 0x40 }
  - { offsetInCU: 0x159F7, offset: 0x159F7, size: 0x8, addend: 0x0, symName: __ZNSt3__16vectorINS_5arrayIdLm5EEENS_9allocatorIS2_EEEC2Em, symObjAddr: 0x141C, symBinAddr: 0x100005204, symSize: 0xE0 }
  - { offsetInCU: 0x15A53, offset: 0x15A53, size: 0x8, addend: 0x0, symName: __ZNSt3__117__compressed_pairIPNS_5arrayIdLm5EEENS_9allocatorIS2_EEEC1B7v160006IDnNS_18__default_init_tagEEEOT_OT0_, symObjAddr: 0x14FC, symBinAddr: 0x1000052E4, symSize: 0x3C }
  - { offsetInCU: 0x15AAB, offset: 0x15AAB, size: 0x8, addend: 0x0, symName: __ZNSt3__16vectorINS_5arrayIdLm5EEENS_9allocatorIS2_EEE16__destroy_vectorC1ERS5_, symObjAddr: 0x1578, symBinAddr: 0x100005360, symSize: 0x34 }
  - { offsetInCU: 0x15AE4, offset: 0x15AE4, size: 0x8, addend: 0x0, symName: __ZNSt3__16vectorINS_5arrayIdLm5EEENS_9allocatorIS2_EEE11__vallocateB7v160006Em, symObjAddr: 0x15BC, symBinAddr: 0x1000053A4, symSize: 0xB4 }
  - { offsetInCU: 0x15B28, offset: 0x15B28, size: 0x8, addend: 0x0, symName: __ZNSt3__16vectorINS_5arrayIdLm5EEENS_9allocatorIS2_EEE18__construct_at_endEm, symObjAddr: 0x1670, symBinAddr: 0x100005458, symSize: 0xC8 }
  - { offsetInCU: 0x15B9A, offset: 0x15B9A, size: 0x8, addend: 0x0, symName: __ZNSt3__128__exception_guard_exceptionsINS_6vectorINS_5arrayIdLm5EEENS_9allocatorIS3_EEE16__destroy_vectorEE10__completeB7v160006Ev, symObjAddr: 0x1738, symBinAddr: 0x100005520, symSize: 0x1C }
  - { offsetInCU: 0x15BC0, offset: 0x15BC0, size: 0x8, addend: 0x0, symName: __ZNSt3__128__exception_guard_exceptionsINS_6vectorINS_5arrayIdLm5EEENS_9allocatorIS3_EEE16__destroy_vectorEED1B7v160006Ev, symObjAddr: 0x1754, symBinAddr: 0x10000553C, symSize: 0x2C }
  - { offsetInCU: 0x15BEA, offset: 0x15BEA, size: 0x8, addend: 0x0, symName: __ZNSt3__117__compressed_pairIPNS_5arrayIdLm5EEENS_9allocatorIS2_EEEC2B7v160006IDnNS_18__default_init_tagEEEOT_OT0_, symObjAddr: 0x1780, symBinAddr: 0x100005568, symSize: 0x40 }
  - { offsetInCU: 0x15C42, offset: 0x15C42, size: 0x8, addend: 0x0, symName: __ZNSt3__122__compressed_pair_elemIPNS_5arrayIdLm5EEELi0ELb0EEC2B7v160006IDnvEEOT_, symObjAddr: 0x17C0, symBinAddr: 0x1000055A8, symSize: 0x1C }
  - { offsetInCU: 0x15C84, offset: 0x15C84, size: 0x8, addend: 0x0, symName: __ZNSt3__122__compressed_pair_elemINS_9allocatorINS_5arrayIdLm5EEEEELi1ELb1EEC2B7v160006ENS_18__default_init_tagE, symObjAddr: 0x17DC, symBinAddr: 0x1000055C4, symSize: 0x2C }
  - { offsetInCU: 0x15CB9, offset: 0x15CB9, size: 0x8, addend: 0x0, symName: __ZNSt3__19allocatorINS_5arrayIdLm5EEEEC2B7v160006Ev, symObjAddr: 0x1808, symBinAddr: 0x1000055F0, symSize: 0x2C }
  - { offsetInCU: 0x15CE3, offset: 0x15CE3, size: 0x8, addend: 0x0, symName: __ZNSt3__116__non_trivial_ifILb1ENS_9allocatorINS_5arrayIdLm5EEEEEEC2B7v160006Ev, symObjAddr: 0x1834, symBinAddr: 0x10000561C, symSize: 0x14 }
  - { offsetInCU: 0x15D0D, offset: 0x15D0D, size: 0x8, addend: 0x0, symName: __ZNSt3__128__exception_guard_exceptionsINS_6vectorINS_5arrayIdLm5EEENS_9allocatorIS3_EEE16__destroy_vectorEEC1B7v160006ES7_, symObjAddr: 0x1848, symBinAddr: 0x100005630, symSize: 0x34 }
  - { offsetInCU: 0x15D45, offset: 0x15D45, size: 0x8, addend: 0x0, symName: __ZNSt3__128__exception_guard_exceptionsINS_6vectorINS_5arrayIdLm5EEENS_9allocatorIS3_EEE16__destroy_vectorEEC2B7v160006ES7_, symObjAddr: 0x187C, symBinAddr: 0x100005664, symSize: 0x24 }
  - { offsetInCU: 0x15D7D, offset: 0x15D7D, size: 0x8, addend: 0x0, symName: __ZNSt3__16vectorINS_5arrayIdLm5EEENS_9allocatorIS2_EEE16__destroy_vectorC2ERS5_, symObjAddr: 0x18A0, symBinAddr: 0x100005688, symSize: 0x20 }
  - { offsetInCU: 0x15DB6, offset: 0x15DB6, size: 0x8, addend: 0x0, symName: __ZNKSt3__16vectorINS_5arrayIdLm5EEENS_9allocatorIS2_EEE8max_sizeEv, symObjAddr: 0x18C0, symBinAddr: 0x1000056A8, symSize: 0x60 }
  - { offsetInCU: 0x15DDE, offset: 0x15DDE, size: 0x8, addend: 0x0, symName: __ZNKSt3__16vectorINS_5arrayIdLm5EEENS_9allocatorIS2_EEE20__throw_length_errorB7v160006Ev, symObjAddr: 0x1920, symBinAddr: 0x100005708, symSize: 0x1C }
  - { offsetInCU: 0x15E04, offset: 0x15E04, size: 0x8, addend: 0x0, symName: __ZNSt3__16vectorINS_5arrayIdLm5EEENS_9allocatorIS2_EEE7__allocB7v160006Ev, symObjAddr: 0x197C, symBinAddr: 0x100005764, symSize: 0x28 }
  - { offsetInCU: 0x15E2A, offset: 0x15E2A, size: 0x8, addend: 0x0, symName: __ZNSt3__16vectorINS_5arrayIdLm5EEENS_9allocatorIS2_EEE9__end_capB7v160006Ev, symObjAddr: 0x19A4, symBinAddr: 0x10000578C, symSize: 0x28 }
  - { offsetInCU: 0x15E50, offset: 0x15E50, size: 0x8, addend: 0x0, symName: __ZNKSt3__16vectorINS_5arrayIdLm5EEENS_9allocatorIS2_EEE14__annotate_newB7v160006Em, symObjAddr: 0x19CC, symBinAddr: 0x1000057B4, symSize: 0xC8 }
  - { offsetInCU: 0x15E8F, offset: 0x15E8F, size: 0x8, addend: 0x0, symName: __ZNSt3__116allocator_traitsINS_9allocatorINS_5arrayIdLm5EEEEEE8max_sizeB7v160006IS4_vEEmRKS4_, symObjAddr: 0x1AC0, symBinAddr: 0x1000058A8, symSize: 0x24 }
  - { offsetInCU: 0x15EBD, offset: 0x15EBD, size: 0x8, addend: 0x0, symName: __ZNKSt3__16vectorINS_5arrayIdLm5EEENS_9allocatorIS2_EEE7__allocB7v160006Ev, symObjAddr: 0x1AE4, symBinAddr: 0x1000058CC, symSize: 0x28 }
  - { offsetInCU: 0x15EE3, offset: 0x15EE3, size: 0x8, addend: 0x0, symName: __ZNSt3__114numeric_limitsIlE3maxB7v160006Ev, symObjAddr: 0x1B0C, symBinAddr: 0x1000058F4, symSize: 0x14 }
  - { offsetInCU: 0x15F0B, offset: 0x15F0B, size: 0x8, addend: 0x0, symName: __ZNKSt3__16__lessImmEclB7v160006ERKmS3_, symObjAddr: 0x1B80, symBinAddr: 0x100005968, symSize: 0x34 }
  - { offsetInCU: 0x15F4D, offset: 0x15F4D, size: 0x8, addend: 0x0, symName: __ZNKSt3__19allocatorINS_5arrayIdLm5EEEE8max_sizeB7v160006Ev, symObjAddr: 0x1BB4, symBinAddr: 0x10000599C, symSize: 0x18 }
  - { offsetInCU: 0x15F73, offset: 0x15F73, size: 0x8, addend: 0x0, symName: __ZNKSt3__117__compressed_pairIPNS_5arrayIdLm5EEENS_9allocatorIS2_EEE6secondB7v160006Ev, symObjAddr: 0x1BCC, symBinAddr: 0x1000059B4, symSize: 0x24 }
  - { offsetInCU: 0x15F99, offset: 0x15F99, size: 0x8, addend: 0x0, symName: __ZNKSt3__122__compressed_pair_elemINS_9allocatorINS_5arrayIdLm5EEEEELi1ELb1EE5__getB7v160006Ev, symObjAddr: 0x1BF0, symBinAddr: 0x1000059D8, symSize: 0x14 }
  - { offsetInCU: 0x15FBF, offset: 0x15FBF, size: 0x8, addend: 0x0, symName: __ZNSt3__123__libcpp_numeric_limitsIlLb1EE3maxB7v160006Ev, symObjAddr: 0x1C04, symBinAddr: 0x1000059EC, symSize: 0x8 }
  - { offsetInCU: 0x15FD3, offset: 0x15FD3, size: 0x8, addend: 0x0, symName: __ZNSt12length_errorC1B7v160006EPKc, symObjAddr: 0x1C70, symBinAddr: 0x100005A58, symSize: 0x34 }
  - { offsetInCU: 0x1600B, offset: 0x1600B, size: 0x8, addend: 0x0, symName: __ZNSt12length_errorC2B7v160006EPKc, symObjAddr: 0x1CA4, symBinAddr: 0x100005A8C, symSize: 0x4C }
  - { offsetInCU: 0x16043, offset: 0x16043, size: 0x8, addend: 0x0, symName: __ZNSt3__19allocatorINS_5arrayIdLm5EEEE8allocateB7v160006Em, symObjAddr: 0x1CF0, symBinAddr: 0x100005AD8, symSize: 0x5C }
  - { offsetInCU: 0x16077, offset: 0x16077, size: 0x8, addend: 0x0, symName: __ZNSt3__117__compressed_pairIPNS_5arrayIdLm5EEENS_9allocatorIS2_EEE6secondB7v160006Ev, symObjAddr: 0x1E50, symBinAddr: 0x100005C38, symSize: 0x24 }
  - { offsetInCU: 0x1609D, offset: 0x1609D, size: 0x8, addend: 0x0, symName: __ZNSt3__122__compressed_pair_elemINS_9allocatorINS_5arrayIdLm5EEEEELi1ELb1EE5__getB7v160006Ev, symObjAddr: 0x1E74, symBinAddr: 0x100005C5C, symSize: 0x14 }
  - { offsetInCU: 0x160C3, offset: 0x160C3, size: 0x8, addend: 0x0, symName: __ZNSt3__117__compressed_pairIPNS_5arrayIdLm5EEENS_9allocatorIS2_EEE5firstB7v160006Ev, symObjAddr: 0x1E88, symBinAddr: 0x100005C70, symSize: 0x24 }
  - { offsetInCU: 0x160E9, offset: 0x160E9, size: 0x8, addend: 0x0, symName: __ZNSt3__122__compressed_pair_elemIPNS_5arrayIdLm5EEELi0ELb0EE5__getB7v160006Ev, symObjAddr: 0x1EAC, symBinAddr: 0x100005C94, symSize: 0x14 }
  - { offsetInCU: 0x1610F, offset: 0x1610F, size: 0x8, addend: 0x0, symName: __ZNKSt3__16vectorINS_5arrayIdLm5EEENS_9allocatorIS2_EEE31__annotate_contiguous_containerB7v160006EPKvS7_S7_S7_, symObjAddr: 0x1EC0, symBinAddr: 0x100005CA8, symSize: 0x20 }
  - { offsetInCU: 0x16161, offset: 0x16161, size: 0x8, addend: 0x0, symName: __ZNKSt3__16vectorINS_5arrayIdLm5EEENS_9allocatorIS2_EEE4dataB7v160006Ev, symObjAddr: 0x1EE0, symBinAddr: 0x100005CC8, symSize: 0x28 }
  - { offsetInCU: 0x16187, offset: 0x16187, size: 0x8, addend: 0x0, symName: __ZNKSt3__16vectorINS_5arrayIdLm5EEENS_9allocatorIS2_EEE8capacityB7v160006Ev, symObjAddr: 0x1F08, symBinAddr: 0x100005CF0, symSize: 0x40 }
  - { offsetInCU: 0x161AD, offset: 0x161AD, size: 0x8, addend: 0x0, symName: __ZNKSt3__16vectorINS_5arrayIdLm5EEENS_9allocatorIS2_EEE9__end_capB7v160006Ev, symObjAddr: 0x1F5C, symBinAddr: 0x100005D44, symSize: 0x28 }
  - { offsetInCU: 0x161D3, offset: 0x161D3, size: 0x8, addend: 0x0, symName: __ZNKSt3__117__compressed_pairIPNS_5arrayIdLm5EEENS_9allocatorIS2_EEE5firstB7v160006Ev, symObjAddr: 0x1F84, symBinAddr: 0x100005D6C, symSize: 0x24 }
  - { offsetInCU: 0x161F9, offset: 0x161F9, size: 0x8, addend: 0x0, symName: __ZNKSt3__122__compressed_pair_elemIPNS_5arrayIdLm5EEELi0ELb0EE5__getB7v160006Ev, symObjAddr: 0x1FA8, symBinAddr: 0x100005D90, symSize: 0x14 }
  - { offsetInCU: 0x16238, offset: 0x16238, size: 0x8, addend: 0x0, symName: __ZNSt3__16vectorINS_5arrayIdLm5EEENS_9allocatorIS2_EEE21_ConstructTransactionC1B7v160006ERS5_m, symObjAddr: 0x1FBC, symBinAddr: 0x100005DA4, symSize: 0x3C }
  - { offsetInCU: 0x16280, offset: 0x16280, size: 0x8, addend: 0x0, symName: __ZNSt3__116allocator_traitsINS_9allocatorINS_5arrayIdLm5EEEEEE9constructB7v160006IS3_JEvEEvRS4_PT_DpOT0_, symObjAddr: 0x1FF8, symBinAddr: 0x100005DE0, symSize: 0x2C }
  - { offsetInCU: 0x162C2, offset: 0x162C2, size: 0x8, addend: 0x0, symName: __ZNSt3__16vectorINS_5arrayIdLm5EEENS_9allocatorIS2_EEE21_ConstructTransactionD1B7v160006Ev, symObjAddr: 0x2024, symBinAddr: 0x100005E0C, symSize: 0x2C }
  - { offsetInCU: 0x162EC, offset: 0x162EC, size: 0x8, addend: 0x0, symName: __ZNSt3__16vectorINS_5arrayIdLm5EEENS_9allocatorIS2_EEE21_ConstructTransactionC2B7v160006ERS5_m, symObjAddr: 0x2050, symBinAddr: 0x100005E38, symSize: 0x4C }
  - { offsetInCU: 0x16334, offset: 0x16334, size: 0x8, addend: 0x0, symName: __ZNSt3__19allocatorINS_5arrayIdLm5EEEE9constructB7v160006IS2_JEEEvPT_DpOT0_, symObjAddr: 0x209C, symBinAddr: 0x100005E84, symSize: 0x30 }
  - { offsetInCU: 0x16376, offset: 0x16376, size: 0x8, addend: 0x0, symName: __ZNSt3__16vectorINS_5arrayIdLm5EEENS_9allocatorIS2_EEE21_ConstructTransactionD2B7v160006Ev, symObjAddr: 0x20CC, symBinAddr: 0x100005EB4, symSize: 0x20 }
  - { offsetInCU: 0x163A0, offset: 0x163A0, size: 0x8, addend: 0x0, symName: __ZNSt3__128__exception_guard_exceptionsINS_6vectorINS_5arrayIdLm5EEENS_9allocatorIS3_EEE16__destroy_vectorEED2B7v160006Ev, symObjAddr: 0x20EC, symBinAddr: 0x100005ED4, symSize: 0x50 }
  - { offsetInCU: 0x163CA, offset: 0x163CA, size: 0x8, addend: 0x0, symName: __ZNSt3__16vectorINS_5arrayIdLm5EEENS_9allocatorIS2_EEE16__destroy_vectorclB7v160006Ev, symObjAddr: 0x213C, symBinAddr: 0x100005F24, symSize: 0x9C }
  - { offsetInCU: 0x163F0, offset: 0x163F0, size: 0x8, addend: 0x0, symName: __ZNKSt3__16vectorINS_5arrayIdLm5EEENS_9allocatorIS2_EEE17__annotate_deleteB7v160006Ev, symObjAddr: 0x21D8, symBinAddr: 0x100005FC0, symSize: 0xD4 }
  - { offsetInCU: 0x16416, offset: 0x16416, size: 0x8, addend: 0x0, symName: __ZNSt3__16vectorINS_5arrayIdLm5EEENS_9allocatorIS2_EEE7__clearB7v160006Ev, symObjAddr: 0x22BC, symBinAddr: 0x1000060A4, symSize: 0x28 }
  - { offsetInCU: 0x1643C, offset: 0x1643C, size: 0x8, addend: 0x0, symName: __ZNSt3__116allocator_traitsINS_9allocatorINS_5arrayIdLm5EEEEEE10deallocateB7v160006ERS4_PS3_m, symObjAddr: 0x22E4, symBinAddr: 0x1000060CC, symSize: 0x34 }
  - { offsetInCU: 0x1647E, offset: 0x1647E, size: 0x8, addend: 0x0, symName: __ZNKSt3__16vectorINS_5arrayIdLm5EEENS_9allocatorIS2_EEE4sizeB7v160006Ev, symObjAddr: 0x2318, symBinAddr: 0x100006100, symSize: 0x28 }
  - { offsetInCU: 0x164A4, offset: 0x164A4, size: 0x8, addend: 0x0, symName: __ZNSt3__16vectorINS_5arrayIdLm5EEENS_9allocatorIS2_EEE22__base_destruct_at_endB7v160006EPS2_, symObjAddr: 0x2340, symBinAddr: 0x100006128, symSize: 0x8C }
  - { offsetInCU: 0x164E8, offset: 0x164E8, size: 0x8, addend: 0x0, symName: __ZNSt3__116allocator_traitsINS_9allocatorINS_5arrayIdLm5EEEEEE7destroyB7v160006IS3_vEEvRS4_PT_, symObjAddr: 0x23CC, symBinAddr: 0x1000061B4, symSize: 0x2C }
  - { offsetInCU: 0x16525, offset: 0x16525, size: 0x8, addend: 0x0, symName: __ZNSt3__19allocatorINS_5arrayIdLm5EEEE7destroyB7v160006EPS2_, symObjAddr: 0x23F8, symBinAddr: 0x1000061E0, symSize: 0x14 }
  - { offsetInCU: 0x16559, offset: 0x16559, size: 0x8, addend: 0x0, symName: __ZNSt3__19allocatorINS_5arrayIdLm5EEEE10deallocateB7v160006EPS2_m, symObjAddr: 0x240C, symBinAddr: 0x1000061F4, symSize: 0x44 }
  - { offsetInCU: 0x1659B, offset: 0x1659B, size: 0x8, addend: 0x0, symName: __ZNSt3__16vectorINS_5arrayIdLm5EEENS_9allocatorIS2_EEEC2ERKS5_, symObjAddr: 0x2558, symBinAddr: 0x100006340, symSize: 0x110 }
  - { offsetInCU: 0x165FA, offset: 0x165FA, size: 0x8, addend: 0x0, symName: __ZNSt3__116allocator_traitsINS_9allocatorINS_5arrayIdLm5EEEEEE37select_on_container_copy_constructionB7v160006IS4_vvEES4_RKS4_, symObjAddr: 0x2668, symBinAddr: 0x100006450, symSize: 0x10 }
  - { offsetInCU: 0x1662F, offset: 0x1662F, size: 0x8, addend: 0x0, symName: __ZNSt3__117__compressed_pairIPNS_5arrayIdLm5EEENS_9allocatorIS2_EEEC1B7v160006IDnS5_EEOT_OT0_, symObjAddr: 0x2678, symBinAddr: 0x100006460, symSize: 0x3C }
  - { offsetInCU: 0x16687, offset: 0x16687, size: 0x8, addend: 0x0, symName: __ZNSt3__16vectorINS_5arrayIdLm5EEENS_9allocatorIS2_EEE18__construct_at_endIPS2_Li0EEEvT_S8_m, symObjAddr: 0x26B4, symBinAddr: 0x10000649C, symSize: 0x8C }
  - { offsetInCU: 0x166FA, offset: 0x166FA, size: 0x8, addend: 0x0, symName: __ZNSt3__117__compressed_pairIPNS_5arrayIdLm5EEENS_9allocatorIS2_EEEC2B7v160006IDnS5_EEOT_OT0_, symObjAddr: 0x2740, symBinAddr: 0x100006528, symSize: 0x44 }
  - { offsetInCU: 0x16752, offset: 0x16752, size: 0x8, addend: 0x0, symName: __ZNSt3__122__compressed_pair_elemINS_9allocatorINS_5arrayIdLm5EEEEELi1ELb1EEC2B7v160006IS4_vEEOT_, symObjAddr: 0x2784, symBinAddr: 0x10000656C, symSize: 0x18 }
  - { offsetInCU: 0x16794, offset: 0x16794, size: 0x8, addend: 0x0, symName: __ZNSt3__129_AllocatorDestroyRangeReverseINS_9allocatorINS_5arrayIdLm5EEEEEPS3_EC1B7v160006ERS4_RS5_S8_, symObjAddr: 0x28DC, symBinAddr: 0x1000066C4, symSize: 0x44 }
  - { offsetInCU: 0x167EB, offset: 0x167EB, size: 0x8, addend: 0x0, symName: __ZNSt3__116allocator_traitsINS_9allocatorINS_5arrayIdLm5EEEEEE9constructB7v160006IS3_JRS3_EvEEvRS4_PT_DpOT0_, symObjAddr: 0x2920, symBinAddr: 0x100006708, symSize: 0x34 }
  - { offsetInCU: 0x16842, offset: 0x16842, size: 0x8, addend: 0x0, symName: __ZNSt3__128__exception_guard_exceptionsINS_29_AllocatorDestroyRangeReverseINS_9allocatorINS_5arrayIdLm5EEEEEPS4_EEE10__completeB7v160006Ev, symObjAddr: 0x2954, symBinAddr: 0x10000673C, symSize: 0x1C }
  - { offsetInCU: 0x16868, offset: 0x16868, size: 0x8, addend: 0x0, symName: __ZNSt3__128__exception_guard_exceptionsINS_29_AllocatorDestroyRangeReverseINS_9allocatorINS_5arrayIdLm5EEEEEPS4_EEED1B7v160006Ev, symObjAddr: 0x2970, symBinAddr: 0x100006758, symSize: 0x2C }
  - { offsetInCU: 0x16892, offset: 0x16892, size: 0x8, addend: 0x0, symName: __ZNSt3__128__exception_guard_exceptionsINS_29_AllocatorDestroyRangeReverseINS_9allocatorINS_5arrayIdLm5EEEEEPS4_EEEC1B7v160006ES7_, symObjAddr: 0x299C, symBinAddr: 0x100006784, symSize: 0x34 }
  - { offsetInCU: 0x168CB, offset: 0x168CB, size: 0x8, addend: 0x0, symName: __ZNSt3__128__exception_guard_exceptionsINS_29_AllocatorDestroyRangeReverseINS_9allocatorINS_5arrayIdLm5EEEEEPS4_EEEC2B7v160006ES7_, symObjAddr: 0x29D0, symBinAddr: 0x1000067B8, symSize: 0x30 }
  - { offsetInCU: 0x16904, offset: 0x16904, size: 0x8, addend: 0x0, symName: __ZNSt3__129_AllocatorDestroyRangeReverseINS_9allocatorINS_5arrayIdLm5EEEEEPS3_EC2B7v160006ERS4_RS5_S8_, symObjAddr: 0x2A00, symBinAddr: 0x1000067E8, symSize: 0x38 }
  - { offsetInCU: 0x1695B, offset: 0x1695B, size: 0x8, addend: 0x0, symName: __ZNSt3__19allocatorINS_5arrayIdLm5EEEE9constructB7v160006IS2_JRS2_EEEvPT_DpOT0_, symObjAddr: 0x2A38, symBinAddr: 0x100006820, symSize: 0x34 }
  - { offsetInCU: 0x169B1, offset: 0x169B1, size: 0x8, addend: 0x0, symName: __ZNSt3__128__exception_guard_exceptionsINS_29_AllocatorDestroyRangeReverseINS_9allocatorINS_5arrayIdLm5EEEEEPS4_EEED2B7v160006Ev, symObjAddr: 0x2A6C, symBinAddr: 0x100006854, symSize: 0x50 }
  - { offsetInCU: 0x169DB, offset: 0x169DB, size: 0x8, addend: 0x0, symName: __ZNKSt3__129_AllocatorDestroyRangeReverseINS_9allocatorINS_5arrayIdLm5EEEEEPS3_EclB7v160006Ev, symObjAddr: 0x2ABC, symBinAddr: 0x1000068A4, symSize: 0x68 }
  - { offsetInCU: 0x16A01, offset: 0x16A01, size: 0x8, addend: 0x0, symName: __ZNSt3__116reverse_iteratorIPNS_5arrayIdLm5EEEEC1B7v160006ES3_, symObjAddr: 0x2B94, symBinAddr: 0x10000697C, symSize: 0x34 }
  - { offsetInCU: 0x16A39, offset: 0x16A39, size: 0x8, addend: 0x0, symName: __ZNSt3__116reverse_iteratorIPNS_5arrayIdLm5EEEEppB7v160006Ev, symObjAddr: 0x2C34, symBinAddr: 0x100006A1C, symSize: 0x20 }
  - { offsetInCU: 0x16A5F, offset: 0x16A5F, size: 0x8, addend: 0x0, symName: __ZNKSt3__116reverse_iteratorIPNS_5arrayIdLm5EEEE4baseB7v160006Ev, symObjAddr: 0x2C54, symBinAddr: 0x100006A3C, symSize: 0x18 }
  - { offsetInCU: 0x16A8A, offset: 0x16A8A, size: 0x8, addend: 0x0, symName: __ZNSt3__119__to_address_helperINS_16reverse_iteratorIPNS_5arrayIdLm5EEEEEvE6__callB7v160006ERKS5_, symObjAddr: 0x2C6C, symBinAddr: 0x100006A54, symSize: 0x38 }
  - { offsetInCU: 0x16AAD, offset: 0x16AAD, size: 0x8, addend: 0x0, symName: __ZNKSt3__116reverse_iteratorIPNS_5arrayIdLm5EEEEptB7v160006Ev, symObjAddr: 0x2CA4, symBinAddr: 0x100006A8C, symSize: 0x24 }
  - { offsetInCU: 0x16AD3, offset: 0x16AD3, size: 0x8, addend: 0x0, symName: __ZNKSt3__116reverse_iteratorIPNS_5arrayIdLm5EEEEdeB7v160006Ev, symObjAddr: 0x2CC8, symBinAddr: 0x100006AB0, symSize: 0x28 }
  - { offsetInCU: 0x16B08, offset: 0x16B08, size: 0x8, addend: 0x0, symName: __ZNSt3__116reverse_iteratorIPNS_5arrayIdLm5EEEEC2B7v160006ES3_, symObjAddr: 0x2CF0, symBinAddr: 0x100006AD8, symSize: 0x28 }
  - { offsetInCU: 0x16B40, offset: 0x16B40, size: 0x8, addend: 0x0, symName: __ZNSt3__16vectorINS_5arrayIdLm5EEENS_9allocatorIS2_EEE13__move_assignERS5_NS_17integral_constantIbLb1EEE, symObjAddr: 0x2D18, symBinAddr: 0x100006B00, symSize: 0xAC }
  - { offsetInCU: 0x16B82, offset: 0x16B82, size: 0x8, addend: 0x0, symName: __ZNSt3__16vectorINS_5arrayIdLm5EEENS_9allocatorIS2_EEE13__vdeallocateEv, symObjAddr: 0x2DC4, symBinAddr: 0x100006BAC, symSize: 0x8C }
  - { offsetInCU: 0x16BAA, offset: 0x16BAA, size: 0x8, addend: 0x0, symName: __ZNSt3__16vectorINS_5arrayIdLm5EEENS_9allocatorIS2_EEE19__move_assign_allocB7v160006ERS5_, symObjAddr: 0x2E50, symBinAddr: 0x100006C38, symSize: 0x2C }
  - { offsetInCU: 0x16BDF, offset: 0x16BDF, size: 0x8, addend: 0x0, symName: __ZNSt3__16vectorINS_5arrayIdLm5EEENS_9allocatorIS2_EEE5clearB7v160006Ev, symObjAddr: 0x2E90, symBinAddr: 0x100006C78, symSize: 0x54 }
  - { offsetInCU: 0x16C14, offset: 0x16C14, size: 0x8, addend: 0x0, symName: __ZNKSt3__16vectorINS_5arrayIdLm5EEENS_9allocatorIS2_EEE17__annotate_shrinkB7v160006Em, symObjAddr: 0x2EE4, symBinAddr: 0x100006CCC, symSize: 0xD0 }
  - { offsetInCU: 0x16C49, offset: 0x16C49, size: 0x8, addend: 0x0, symName: __ZNSt3__16vectorINS_5arrayIdLm5EEENS_9allocatorIS2_EEE19__move_assign_allocB7v160006ERS5_NS_17integral_constantIbLb1EEE, symObjAddr: 0x2FC4, symBinAddr: 0x100006DAC, symSize: 0x38 }
  - { offsetInCU: 0x16C89, offset: 0x16C89, size: 0x8, addend: 0x0, symName: __ZNSt3__16vectorINS_5arrayIdLm5EEENS_9allocatorIS2_EEED2B7v160006Ev, symObjAddr: 0x2FFC, symBinAddr: 0x100006DE4, symSize: 0x44 }
  - { offsetInCU: 0x16CBD, offset: 0x16CBD, size: 0x8, addend: 0x0, symName: __ZNKSt3__16__lessIddEclB7v160006ERKdS3_, symObjAddr: 0x3094, symBinAddr: 0x100006E7C, symSize: 0x34 }
  - { offsetInCU: 0x16CFF, offset: 0x16CFF, size: 0x8, addend: 0x0, symName: __ZNKSt3__19basic_iosIcNS_11char_traitsIcEEE5widenB7v160006Ec, symObjAddr: 0x30C8, symBinAddr: 0x100006EB0, symSize: 0x84 }
  - { offsetInCU: 0x16D6D, offset: 0x16D6D, size: 0x8, addend: 0x0, symName: __ZNKSt3__15ctypeIcE5widenB7v160006Ec, symObjAddr: 0x3178, symBinAddr: 0x100006F60, symSize: 0x38 }
  - { offsetInCU: 0x16DA2, offset: 0x16DA2, size: 0x8, addend: 0x0, symName: __ZNSt3__19basic_iosIcNS_11char_traitsIcEEEC2B7v160006Ev, symObjAddr: 0x31B0, symBinAddr: 0x100006F98, symSize: 0x44 }
  - { offsetInCU: 0x16DCC, offset: 0x16DCC, size: 0x8, addend: 0x0, symName: __ZNSt3__113basic_ostreamIcNS_11char_traitsIcEEEC2B7v160006EPNS_15basic_streambufIcS2_EE, symObjAddr: 0x31F4, symBinAddr: 0x100006FDC, symSize: 0x60 }
  - { offsetInCU: 0x16E11, offset: 0x16E11, size: 0x8, addend: 0x0, symName: __ZNSt3__19basic_iosIcNS_11char_traitsIcEEE8setstateB7v160006Ej, symObjAddr: 0x3254, symBinAddr: 0x10000703C, symSize: 0x2C }
  - { offsetInCU: 0x16E46, offset: 0x16E46, size: 0x8, addend: 0x0, symName: __ZNSt3__18ios_baseC2B7v160006Ev, symObjAddr: 0x3280, symBinAddr: 0x100007068, symSize: 0x24 }
  - { offsetInCU: 0x16E70, offset: 0x16E70, size: 0x8, addend: 0x0, symName: __ZNSt3__19basic_iosIcNS_11char_traitsIcEEE4initB7v160006EPNS_15basic_streambufIcS2_EE, symObjAddr: 0x32A4, symBinAddr: 0x10000708C, symSize: 0x44 }
  - { offsetInCU: 0x16EA7, offset: 0x16EA7, size: 0x8, addend: 0x0, symName: __ZNSt3__111char_traitsIcE3eofEv, symObjAddr: 0x32E8, symBinAddr: 0x1000070D0, symSize: 0x8 }
  - { offsetInCU: 0x16EBB, offset: 0x16EBB, size: 0x8, addend: 0x0, symName: __ZNSt3__18ios_base8setstateB7v160006Ej, symObjAddr: 0x32F0, symBinAddr: 0x1000070D8, symSize: 0x34 }
  - { offsetInCU: 0x16EF2, offset: 0x16EF2, size: 0x8, addend: 0x0, symName: __ZNSt3__111char_traitsIcE6lengthEPKc, symObjAddr: 0x3510, symBinAddr: 0x1000072F8, symSize: 0x34 }
  - { offsetInCU: 0x16F33, offset: 0x16F33, size: 0x8, addend: 0x0, symName: __ZNKSt3__113basic_ostreamIcNS_11char_traitsIcEEE6sentrycvbB7v160006Ev, symObjAddr: 0x3544, symBinAddr: 0x10000732C, symSize: 0x1C }
  - { offsetInCU: 0x16F59, offset: 0x16F59, size: 0x8, addend: 0x0, symName: __ZNSt3__119ostreambuf_iteratorIcNS_11char_traitsIcEEEC1B7v160006ERNS_13basic_ostreamIcS2_EE, symObjAddr: 0x37A0, symBinAddr: 0x100007588, symSize: 0x34 }
  - { offsetInCU: 0x16F91, offset: 0x16F91, size: 0x8, addend: 0x0, symName: __ZNKSt3__18ios_base5flagsB7v160006Ev, symObjAddr: 0x37D4, symBinAddr: 0x1000075BC, symSize: 0x18 }
  - { offsetInCU: 0x16FB9, offset: 0x16FB9, size: 0x8, addend: 0x0, symName: __ZNKSt3__19basic_iosIcNS_11char_traitsIcEEE4fillB7v160006Ev, symObjAddr: 0x37EC, symBinAddr: 0x1000075D4, symSize: 0x64 }
  - { offsetInCU: 0x16FE1, offset: 0x16FE1, size: 0x8, addend: 0x0, symName: __ZNKSt3__119ostreambuf_iteratorIcNS_11char_traitsIcEEE6failedB7v160006Ev, symObjAddr: 0x3850, symBinAddr: 0x100007638, symSize: 0x24 }
  - { offsetInCU: 0x17007, offset: 0x17007, size: 0x8, addend: 0x0, symName: __ZNKSt3__18ios_base5widthB7v160006Ev, symObjAddr: 0x3874, symBinAddr: 0x10000765C, symSize: 0x18 }
  - { offsetInCU: 0x1702F, offset: 0x1702F, size: 0x8, addend: 0x0, symName: __ZNSt3__115basic_streambufIcNS_11char_traitsIcEEE5sputnB7v160006EPKcl, symObjAddr: 0x388C, symBinAddr: 0x100007674, symSize: 0x3C }
  - { offsetInCU: 0x17071, offset: 0x17071, size: 0x8, addend: 0x0, symName: __ZNSt3__112basic_stringIcNS_11char_traitsIcEENS_9allocatorIcEEEC1B7v160006Emc, symObjAddr: 0x38C8, symBinAddr: 0x1000076B0, symSize: 0x3C }
  - { offsetInCU: 0x170B9, offset: 0x170B9, size: 0x8, addend: 0x0, symName: __ZNSt3__112basic_stringIcNS_11char_traitsIcEENS_9allocatorIcEEE4dataB7v160006Ev, symObjAddr: 0x3904, symBinAddr: 0x1000076EC, symSize: 0x28 }
  - { offsetInCU: 0x170DF, offset: 0x170DF, size: 0x8, addend: 0x0, symName: __ZNSt3__18ios_base5widthB7v160006El, symObjAddr: 0x392C, symBinAddr: 0x100007714, symSize: 0x2C }
  - { offsetInCU: 0x17125, offset: 0x17125, size: 0x8, addend: 0x0, symName: __ZNSt3__112basic_stringIcNS_11char_traitsIcEENS_9allocatorIcEEEC2B7v160006Emc, symObjAddr: 0x3958, symBinAddr: 0x100007740, symSize: 0x54 }
  - { offsetInCU: 0x1716D, offset: 0x1716D, size: 0x8, addend: 0x0, symName: __ZNSt3__117__compressed_pairINS_12basic_stringIcNS_11char_traitsIcEENS_9allocatorIcEEE5__repES5_EC1B7v160006INS_18__default_init_tagESA_EEOT_OT0_, symObjAddr: 0x39AC, symBinAddr: 0x100007794, symSize: 0x3C }
  - { offsetInCU: 0x171C5, offset: 0x171C5, size: 0x8, addend: 0x0, symName: __ZNSt3__117__compressed_pairINS_12basic_stringIcNS_11char_traitsIcEENS_9allocatorIcEEE5__repES5_EC2B7v160006INS_18__default_init_tagESA_EEOT_OT0_, symObjAddr: 0x39F8, symBinAddr: 0x1000077E0, symSize: 0x3C }
  - { offsetInCU: 0x1721D, offset: 0x1721D, size: 0x8, addend: 0x0, symName: __ZNSt3__122__compressed_pair_elemINS_12basic_stringIcNS_11char_traitsIcEENS_9allocatorIcEEE5__repELi0ELb0EEC2B7v160006ENS_18__default_init_tagE, symObjAddr: 0x3A34, symBinAddr: 0x10000781C, symSize: 0x14 }
  - { offsetInCU: 0x17252, offset: 0x17252, size: 0x8, addend: 0x0, symName: __ZNSt3__122__compressed_pair_elemINS_9allocatorIcEELi1ELb1EEC2B7v160006ENS_18__default_init_tagE, symObjAddr: 0x3A48, symBinAddr: 0x100007830, symSize: 0x2C }
  - { offsetInCU: 0x17287, offset: 0x17287, size: 0x8, addend: 0x0, symName: __ZNSt3__19allocatorIcEC2B7v160006Ev, symObjAddr: 0x3A74, symBinAddr: 0x10000785C, symSize: 0x2C }
  - { offsetInCU: 0x172B1, offset: 0x172B1, size: 0x8, addend: 0x0, symName: __ZNSt3__116__non_trivial_ifILb1ENS_9allocatorIcEEEC2B7v160006Ev, symObjAddr: 0x3AA0, symBinAddr: 0x100007888, symSize: 0x14 }
  - { offsetInCU: 0x172DB, offset: 0x172DB, size: 0x8, addend: 0x0, symName: __ZNSt3__112basic_stringIcNS_11char_traitsIcEENS_9allocatorIcEEE13__get_pointerB7v160006Ev, symObjAddr: 0x3AC8, symBinAddr: 0x1000078B0, symSize: 0x54 }
  - { offsetInCU: 0x17301, offset: 0x17301, size: 0x8, addend: 0x0, symName: __ZNKSt3__112basic_stringIcNS_11char_traitsIcEENS_9allocatorIcEEE9__is_longB7v160006Ev, symObjAddr: 0x3B1C, symBinAddr: 0x100007904, symSize: 0x38 }
  - { offsetInCU: 0x17327, offset: 0x17327, size: 0x8, addend: 0x0, symName: __ZNSt3__112basic_stringIcNS_11char_traitsIcEENS_9allocatorIcEEE18__get_long_pointerB7v160006Ev, symObjAddr: 0x3B54, symBinAddr: 0x10000793C, symSize: 0x28 }
  - { offsetInCU: 0x1734D, offset: 0x1734D, size: 0x8, addend: 0x0, symName: __ZNSt3__112basic_stringIcNS_11char_traitsIcEENS_9allocatorIcEEE19__get_short_pointerB7v160006Ev, symObjAddr: 0x3B7C, symBinAddr: 0x100007964, symSize: 0x28 }
  - { offsetInCU: 0x17373, offset: 0x17373, size: 0x8, addend: 0x0, symName: __ZNKSt3__117__compressed_pairINS_12basic_stringIcNS_11char_traitsIcEENS_9allocatorIcEEE5__repES5_E5firstB7v160006Ev, symObjAddr: 0x3BA4, symBinAddr: 0x10000798C, symSize: 0x24 }
  - { offsetInCU: 0x17399, offset: 0x17399, size: 0x8, addend: 0x0, symName: __ZNKSt3__122__compressed_pair_elemINS_12basic_stringIcNS_11char_traitsIcEENS_9allocatorIcEEE5__repELi0ELb0EE5__getB7v160006Ev, symObjAddr: 0x3BC8, symBinAddr: 0x1000079B0, symSize: 0x14 }
  - { offsetInCU: 0x173BF, offset: 0x173BF, size: 0x8, addend: 0x0, symName: __ZNSt3__117__compressed_pairINS_12basic_stringIcNS_11char_traitsIcEENS_9allocatorIcEEE5__repES5_E5firstB7v160006Ev, symObjAddr: 0x3BDC, symBinAddr: 0x1000079C4, symSize: 0x24 }
  - { offsetInCU: 0x173E5, offset: 0x173E5, size: 0x8, addend: 0x0, symName: __ZNSt3__122__compressed_pair_elemINS_12basic_stringIcNS_11char_traitsIcEENS_9allocatorIcEEE5__repELi0ELb0EE5__getB7v160006Ev, symObjAddr: 0x3C00, symBinAddr: 0x1000079E8, symSize: 0x14 }
  - { offsetInCU: 0x1740B, offset: 0x1740B, size: 0x8, addend: 0x0, symName: __ZNSt3__114pointer_traitsIPcE10pointer_toB7v160006ERc, symObjAddr: 0x3C14, symBinAddr: 0x1000079FC, symSize: 0x14 }
  - { offsetInCU: 0x1742E, offset: 0x1742E, size: 0x8, addend: 0x0, symName: __ZNSt3__119ostreambuf_iteratorIcNS_11char_traitsIcEEEC2B7v160006ERNS_13basic_ostreamIcS2_EE, symObjAddr: 0x3C28, symBinAddr: 0x100007A10, symSize: 0x54 }
  - { offsetInCU: 0x17466, offset: 0x17466, size: 0x8, addend: 0x0, symName: __ZNKSt3__19basic_iosIcNS_11char_traitsIcEEE5rdbufB7v160006Ev, symObjAddr: 0x3C7C, symBinAddr: 0x100007A64, symSize: 0x24 }
  - { offsetInCU: 0x1748E, offset: 0x1748E, size: 0x8, addend: 0x0, symName: __ZNKSt3__18ios_base5rdbufB7v160006Ev, symObjAddr: 0x3CA0, symBinAddr: 0x100007A88, symSize: 0x18 }
  - { offsetInCU: 0x174B4, offset: 0x174B4, size: 0x8, addend: 0x0, symName: __ZNSt3__111char_traitsIcE11eq_int_typeEii, symObjAddr: 0x3CB8, symBinAddr: 0x100007AA0, symSize: 0x28 }
  - { offsetInCU: 0x174E5, offset: 0x174E5, size: 0x8, addend: 0x0, symName: __ZNSt3__114basic_ofstreamIcNS_11char_traitsIcEEED2Ev, symObjAddr: 0x3D04, symBinAddr: 0x100007AEC, symSize: 0x64 }
  - { offsetInCU: 0x1751F, offset: 0x1751F, size: 0x8, addend: 0x0, symName: __ZTv0_n24_NSt3__114basic_ofstreamIcNS_11char_traitsIcEEED1Ev, symObjAddr: 0x3D68, symBinAddr: 0x100007B50, symSize: 0x28 }
  - { offsetInCU: 0x17535, offset: 0x17535, size: 0x8, addend: 0x0, symName: __Z22computePressureFromEoSRKdS0_S0_S0_, symObjAddr: 0x3D90, symBinAddr: 0x100007B78, symSize: 0x60 }
  - { offsetInCU: 0x1759A, offset: 0x1759A, size: 0x8, addend: 0x0, symName: __Z28computeInternalEnergyFromEoSRKdRdS0_S0_, symObjAddr: 0x3DF0, symBinAddr: 0x100007BD8, symSize: 0x60 }
  - { offsetInCU: 0x175FF, offset: 0x175FF, size: 0x8, addend: 0x0, symName: __Z24computeSoundSpeedFromEoSRKdS0_S0_, symObjAddr: 0x3E50, symBinAddr: 0x100007C38, symSize: 0x44 }
  - { offsetInCU: 0x17656, offset: 0x17656, size: 0x8, addend: 0x0, symName: __Z25indi_primitiveToConservedRKNSt3__15arrayIdLm5EEE, symObjAddr: 0x3E94, symBinAddr: 0x100007C7C, symSize: 0x2A8 }
  - { offsetInCU: 0x17770, offset: 0x17770, size: 0x8, addend: 0x0, symName: __Z27computeGammaPinfty_Alllaired, symObjAddr: 0x413C, symBinAddr: 0x100007F24, symSize: 0xF0 }
  - { offsetInCU: 0x177CA, offset: 0x177CA, size: 0x8, addend: 0x0, symName: __ZNKSt3__15arrayIdLm5EEixB7v160006Em, symObjAddr: 0x422C, symBinAddr: 0x100008014, symSize: 0x20 }
  - { offsetInCU: 0x178EC, offset: 0x178EC, size: 0x8, addend: 0x0, symName: __ZNSt3__15tupleIJRdS1_EEaSB7v160006IJddELi0EEERS2_ONS0_IJDpT_EEE, symObjAddr: 0x4284, symBinAddr: 0x10000806C, symSize: 0x3C }
  - { offsetInCU: 0x17ABB, offset: 0x17ABB, size: 0x8, addend: 0x0, symName: __ZNSt3__15tupleIJRdS1_S1_S1_S1_EEaSB7v160006IJRKdS5_S5_S5_S5_ELi0EEERS2_ONS0_IJDpT_EEE, symObjAddr: 0x4360, symBinAddr: 0x100008148, symSize: 0x3C }
  - { offsetInCU: 0x17B15, offset: 0x17B15, size: 0x8, addend: 0x0, symName: __ZNSt3__15tupleIJRdS1_S1_S1_S1_EEaSB7v160006EOS2_, symObjAddr: 0x439C, symBinAddr: 0x100008184, symSize: 0x3C }
  - { offsetInCU: 0x17B4A, offset: 0x17B4A, size: 0x8, addend: 0x0, symName: __ZNSt3__15tupleIJRdS1_EEC1B7v160006INS_4_AndELi0EEES1_S1_, symObjAddr: 0x43D8, symBinAddr: 0x1000081C0, symSize: 0x3C }
  - { offsetInCU: 0x17BA1, offset: 0x17BA1, size: 0x8, addend: 0x0, symName: __ZNSt3__15tupleIJRdS1_EEC2B7v160006INS_4_AndELi0EEES1_S1_, symObjAddr: 0x4414, symBinAddr: 0x1000081FC, symSize: 0x3C }
  - { offsetInCU: 0x17BF8, offset: 0x17BF8, size: 0x8, addend: 0x0, symName: __ZNSt3__112__tuple_implINS_15__tuple_indicesIJLm0ELm1EEEEJRdS3_EEC1B7v160006IJLm0ELm1EEJS3_S3_EJEJEJS3_S3_EEENS1_IJXspT_EEEENS_13__tuple_typesIJDpT0_EEENS1_IJXspT1_EEEENS7_IJDpT2_EEEDpOT3_, symObjAddr: 0x4450, symBinAddr: 0x100008238, symSize: 0x3C }
  - { offsetInCU: 0x17CA8, offset: 0x17CA8, size: 0x8, addend: 0x0, symName: __ZNSt3__112__tuple_implINS_15__tuple_indicesIJLm0ELm1EEEEJRdS3_EEC2B7v160006IJLm0ELm1EEJS3_S3_EJEJEJS3_S3_EEENS1_IJXspT_EEEENS_13__tuple_typesIJDpT0_EEENS1_IJXspT1_EEEENS7_IJDpT2_EEEDpOT3_, symObjAddr: 0x448C, symBinAddr: 0x100008274, symSize: 0x48 }
  - { offsetInCU: 0x17D58, offset: 0x17D58, size: 0x8, addend: 0x0, symName: __ZNSt3__112__tuple_leafILm0ERdLb0EEC2B7v160006IS1_vEEOT_, symObjAddr: 0x44D4, symBinAddr: 0x1000082BC, symSize: 0x20 }
  - { offsetInCU: 0x17D9B, offset: 0x17D9B, size: 0x8, addend: 0x0, symName: __ZNSt3__112__tuple_leafILm1ERdLb0EEC2B7v160006IS1_vEEOT_, symObjAddr: 0x44F4, symBinAddr: 0x1000082DC, symSize: 0x20 }
  - { offsetInCU: 0x17DDE, offset: 0x17DDE, size: 0x8, addend: 0x0, symName: __ZNSt3__112__tuple_leafILm0EdLb0EE3getB7v160006Ev, symObjAddr: 0x4640, symBinAddr: 0x100008428, symSize: 0x14 }
  - { offsetInCU: 0x17E04, offset: 0x17E04, size: 0x8, addend: 0x0, symName: __ZNSt3__112__tuple_leafILm0ERdLb0EE3getB7v160006Ev, symObjAddr: 0x4654, symBinAddr: 0x10000843C, symSize: 0x18 }
  - { offsetInCU: 0x17E2A, offset: 0x17E2A, size: 0x8, addend: 0x0, symName: __ZNSt3__112__tuple_leafILm1EdLb0EE3getB7v160006Ev, symObjAddr: 0x466C, symBinAddr: 0x100008454, symSize: 0x14 }
  - { offsetInCU: 0x17E50, offset: 0x17E50, size: 0x8, addend: 0x0, symName: __ZNSt3__112__tuple_leafILm1ERdLb0EE3getB7v160006Ev, symObjAddr: 0x4680, symBinAddr: 0x100008468, symSize: 0x18 }
  - { offsetInCU: 0x17E76, offset: 0x17E76, size: 0x8, addend: 0x0, symName: __ZNSt3__15tupleIJRKdS2_S2_S2_S2_EEC1B7v160006INS_4_AndELi0EEES2_S2_S2_S2_S2_, symObjAddr: 0x4698, symBinAddr: 0x100008480, symSize: 0x54 }
  - { offsetInCU: 0x17EFA, offset: 0x17EFA, size: 0x8, addend: 0x0, symName: __ZNSt3__15tupleIJRKdS2_S2_S2_S2_EEC2B7v160006INS_4_AndELi0EEES2_S2_S2_S2_S2_, symObjAddr: 0x46EC, symBinAddr: 0x1000084D4, symSize: 0x54 }
  - { offsetInCU: 0x17F7E, offset: 0x17F7E, size: 0x8, addend: 0x0, symName: __ZNSt3__112__tuple_implINS_15__tuple_indicesIJLm0ELm1ELm2ELm3ELm4EEEEJRKdS4_S4_S4_S4_EEC1B7v160006IJLm0ELm1ELm2ELm3ELm4EEJS4_S4_S4_S4_S4_EJEJEJS4_S4_S4_S4_S4_EEENS1_IJXspT_EEEENS_13__tuple_typesIJDpT0_EEENS1_IJXspT1_EEEENS8_IJDpT2_EEEDpOT3_, symObjAddr: 0x4740, symBinAddr: 0x100008528, symSize: 0x54 }
  - { offsetInCU: 0x1808B, offset: 0x1808B, size: 0x8, addend: 0x0, symName: __ZNSt3__112__tuple_implINS_15__tuple_indicesIJLm0ELm1ELm2ELm3ELm4EEEEJRKdS4_S4_S4_S4_EEC2B7v160006IJLm0ELm1ELm2ELm3ELm4EEJS4_S4_S4_S4_S4_EJEJEJS4_S4_S4_S4_S4_EEENS1_IJXspT_EEEENS_13__tuple_typesIJDpT0_EEENS1_IJXspT1_EEEENS8_IJDpT2_EEEDpOT3_, symObjAddr: 0x4794, symBinAddr: 0x10000857C, symSize: 0x84 }
  - { offsetInCU: 0x18198, offset: 0x18198, size: 0x8, addend: 0x0, symName: __ZNSt3__112__tuple_leafILm0ERKdLb0EEC2B7v160006IS2_vEEOT_, symObjAddr: 0x4818, symBinAddr: 0x100008600, symSize: 0x20 }
  - { offsetInCU: 0x181DB, offset: 0x181DB, size: 0x8, addend: 0x0, symName: __ZNSt3__112__tuple_leafILm1ERKdLb0EEC2B7v160006IS2_vEEOT_, symObjAddr: 0x4838, symBinAddr: 0x100008620, symSize: 0x20 }
  - { offsetInCU: 0x1821E, offset: 0x1821E, size: 0x8, addend: 0x0, symName: __ZNSt3__112__tuple_leafILm2ERKdLb0EEC2B7v160006IS2_vEEOT_, symObjAddr: 0x4858, symBinAddr: 0x100008640, symSize: 0x20 }
  - { offsetInCU: 0x18261, offset: 0x18261, size: 0x8, addend: 0x0, symName: __ZNSt3__112__tuple_leafILm3ERKdLb0EEC2B7v160006IS2_vEEOT_, symObjAddr: 0x4878, symBinAddr: 0x100008660, symSize: 0x20 }
  - { offsetInCU: 0x182A4, offset: 0x182A4, size: 0x8, addend: 0x0, symName: __ZNSt3__112__tuple_leafILm4ERKdLb0EEC2B7v160006IS2_vEEOT_, symObjAddr: 0x4898, symBinAddr: 0x100008680, symSize: 0x20 }
  - { offsetInCU: 0x182E7, offset: 0x182E7, size: 0x8, addend: 0x0, symName: __ZNSt3__15tupleIJRdS1_S1_S1_S1_EEC1B7v160006INS_4_AndELi0EEES1_S1_S1_S1_S1_, symObjAddr: 0x48B8, symBinAddr: 0x1000086A0, symSize: 0x54 }
  - { offsetInCU: 0x1836B, offset: 0x1836B, size: 0x8, addend: 0x0, symName: __ZNSt3__15tupleIJRdS1_S1_S1_S1_EEC2B7v160006INS_4_AndELi0EEES1_S1_S1_S1_S1_, symObjAddr: 0x490C, symBinAddr: 0x1000086F4, symSize: 0x54 }
  - { offsetInCU: 0x183EF, offset: 0x183EF, size: 0x8, addend: 0x0, symName: __ZNSt3__112__tuple_implINS_15__tuple_indicesIJLm0ELm1ELm2ELm3ELm4EEEEJRdS3_S3_S3_S3_EEC1B7v160006IJLm0ELm1ELm2ELm3ELm4EEJS3_S3_S3_S3_S3_EJEJEJS3_S3_S3_S3_S3_EEENS1_IJXspT_EEEENS_13__tuple_typesIJDpT0_EEENS1_IJXspT1_EEEENS7_IJDpT2_EEEDpOT3_, symObjAddr: 0x4960, symBinAddr: 0x100008748, symSize: 0x54 }
  - { offsetInCU: 0x184FC, offset: 0x184FC, size: 0x8, addend: 0x0, symName: __ZNSt3__112__tuple_implINS_15__tuple_indicesIJLm0ELm1ELm2ELm3ELm4EEEEJRdS3_S3_S3_S3_EEC2B7v160006IJLm0ELm1ELm2ELm3ELm4EEJS3_S3_S3_S3_S3_EJEJEJS3_S3_S3_S3_S3_EEENS1_IJXspT_EEEENS_13__tuple_typesIJDpT0_EEENS1_IJXspT1_EEEENS7_IJDpT2_EEEDpOT3_, symObjAddr: 0x49B4, symBinAddr: 0x10000879C, symSize: 0x84 }
  - { offsetInCU: 0x18609, offset: 0x18609, size: 0x8, addend: 0x0, symName: __ZNSt3__112__tuple_leafILm2ERdLb0EEC2B7v160006IS1_vEEOT_, symObjAddr: 0x4A38, symBinAddr: 0x100008820, symSize: 0x20 }
  - { offsetInCU: 0x1864C, offset: 0x1864C, size: 0x8, addend: 0x0, symName: __ZNSt3__112__tuple_leafILm3ERdLb0EEC2B7v160006IS1_vEEOT_, symObjAddr: 0x4A58, symBinAddr: 0x100008840, symSize: 0x20 }
  - { offsetInCU: 0x1868F, offset: 0x1868F, size: 0x8, addend: 0x0, symName: __ZNSt3__112__tuple_leafILm4ERdLb0EEC2B7v160006IS1_vEEOT_, symObjAddr: 0x4A78, symBinAddr: 0x100008860, symSize: 0x20 }
  - { offsetInCU: 0x186D2, offset: 0x186D2, size: 0x8, addend: 0x0, symName: __ZNSt3__112__tuple_leafILm0ERKdLb0EE3getB7v160006Ev, symObjAddr: 0x4D50, symBinAddr: 0x100008B38, symSize: 0x18 }
  - { offsetInCU: 0x186F8, offset: 0x186F8, size: 0x8, addend: 0x0, symName: __ZNSt3__112__tuple_leafILm1ERKdLb0EE3getB7v160006Ev, symObjAddr: 0x4D68, symBinAddr: 0x100008B50, symSize: 0x18 }
  - { offsetInCU: 0x1871E, offset: 0x1871E, size: 0x8, addend: 0x0, symName: __ZNSt3__112__tuple_leafILm2ERKdLb0EE3getB7v160006Ev, symObjAddr: 0x4D80, symBinAddr: 0x100008B68, symSize: 0x18 }
  - { offsetInCU: 0x18744, offset: 0x18744, size: 0x8, addend: 0x0, symName: __ZNSt3__112__tuple_leafILm2ERdLb0EE3getB7v160006Ev, symObjAddr: 0x4D98, symBinAddr: 0x100008B80, symSize: 0x18 }
  - { offsetInCU: 0x1876A, offset: 0x1876A, size: 0x8, addend: 0x0, symName: __ZNSt3__112__tuple_leafILm3ERKdLb0EE3getB7v160006Ev, symObjAddr: 0x4DB0, symBinAddr: 0x100008B98, symSize: 0x18 }
  - { offsetInCU: 0x18790, offset: 0x18790, size: 0x8, addend: 0x0, symName: __ZNSt3__112__tuple_leafILm3ERdLb0EE3getB7v160006Ev, symObjAddr: 0x4DC8, symBinAddr: 0x100008BB0, symSize: 0x18 }
  - { offsetInCU: 0x187B6, offset: 0x187B6, size: 0x8, addend: 0x0, symName: __ZNSt3__112__tuple_leafILm4ERKdLb0EE3getB7v160006Ev, symObjAddr: 0x4DE0, symBinAddr: 0x100008BC8, symSize: 0x18 }
  - { offsetInCU: 0x187DC, offset: 0x187DC, size: 0x8, addend: 0x0, symName: __ZNSt3__112__tuple_leafILm4ERdLb0EE3getB7v160006Ev, symObjAddr: 0x4DF8, symBinAddr: 0x100008BE0, symSize: 0x18 }
  - { offsetInCU: 0x18801, offset: 0x18801, size: 0x8, addend: 0x0, symName: __Z25indi_conservedToPrimitiveRKNSt3__15arrayIdLm5EEE, symObjAddr: 0x4F20, symBinAddr: 0x100008D08, symSize: 0x290 }
  - { offsetInCU: 0x1890C, offset: 0x1890C, size: 0x8, addend: 0x0, symName: __ZNKSt3__16vectorINS_5arrayIdLm5EEENS_9allocatorIS2_EEEixB7v160006Em, symObjAddr: 0x51B0, symBinAddr: 0x100008F98, symSize: 0x2C }
  - { offsetInCU: 0x18943, offset: 0x18943, size: 0x8, addend: 0x0, symName: __ZNSt3__15tupleIJddEEC1B7v160006IJRdS3_ELi0EEEONS0_IJDpT_EEE, symObjAddr: 0x51DC, symBinAddr: 0x100008FC4, symSize: 0x34 }
  - { offsetInCU: 0x18992, offset: 0x18992, size: 0x8, addend: 0x0, symName: __ZNSt3__15tupleIJddEEC2B7v160006IJRdS3_ELi0EEEONS0_IJDpT_EEE, symObjAddr: 0x5210, symBinAddr: 0x100008FF8, symSize: 0x34 }
  - { offsetInCU: 0x189E1, offset: 0x189E1, size: 0x8, addend: 0x0, symName: __ZNSt3__112__tuple_implINS_15__tuple_indicesIJLm0ELm1EEEEJddEEC1B7v160006INS_5tupleIJRdS6_EEEvEEOT_, symObjAddr: 0x5244, symBinAddr: 0x10000902C, symSize: 0x34 }
  - { offsetInCU: 0x18A24, offset: 0x18A24, size: 0x8, addend: 0x0, symName: __ZNSt3__112__tuple_implINS_15__tuple_indicesIJLm0ELm1EEEEJddEEC2B7v160006INS_5tupleIJRdS6_EEEvEEOT_, symObjAddr: 0x5278, symBinAddr: 0x100009060, symSize: 0x58 }
  - { offsetInCU: 0x18A67, offset: 0x18A67, size: 0x8, addend: 0x0, symName: __ZNSt3__112__tuple_leafILm0EdLb0EEC2B7v160006IRdvEEOT_, symObjAddr: 0x52D0, symBinAddr: 0x1000090B8, symSize: 0x24 }
  - { offsetInCU: 0x18AAA, offset: 0x18AAA, size: 0x8, addend: 0x0, symName: __ZNSt3__112__tuple_leafILm1EdLb0EEC2B7v160006IRdvEEOT_, symObjAddr: 0x52F4, symBinAddr: 0x1000090DC, symSize: 0x24 }
  - { offsetInCU: 0x18AEC, offset: 0x18AEC, size: 0x8, addend: 0x0, symName: __Z25computeSoundSpeed_AllaireRKNSt3__15arrayIdLm5EEE, symObjAddr: 0x5318, symBinAddr: 0x100009100, symSize: 0x1EC }
  - { offsetInCU: 0x18BE3, offset: 0x18BE3, size: 0x8, addend: 0x0, symName: __Z1fRKNSt3__15arrayIdLm5EEE, symObjAddr: 0x5584, symBinAddr: 0x10000936C, symSize: 0x260 }
  - { offsetInCU: 0x18CBA, offset: 0x18CBA, size: 0x8, addend: 0x0, symName: __Z8getXFluxRKNSt3__15arrayIdLm5EEES3_RdNS_12basic_stringIcNS_11char_traitsIcEENS_9allocatorIcEEEES4_, symObjAddr: 0x57E4, symBinAddr: 0x1000095CC, symSize: 0x68 }
  - { offsetInCU: 0x18D3F, offset: 0x18D3F, size: 0x8, addend: 0x0, symName: __Z8HLLCFluxRKNSt3__15arrayIdLm5EEES3_RS1_Rd, symObjAddr: 0x58F8, symBinAddr: 0x1000096E0, symSize: 0x8BC }
  - { offsetInCU: 0x18F2E, offset: 0x18F2E, size: 0x8, addend: 0x0, symName: __ZNKSt3__112basic_stringIcNS_11char_traitsIcEENS_9allocatorIcEEE4sizeB7v160006Ev, symObjAddr: 0x61B4, symBinAddr: 0x100009F9C, symSize: 0x54 }
  - { offsetInCU: 0x18F54, offset: 0x18F54, size: 0x8, addend: 0x0, symName: __ZNKSt3__112basic_stringIcNS_11char_traitsIcEENS_9allocatorIcEEE15__get_long_sizeB7v160006Ev, symObjAddr: 0x6208, symBinAddr: 0x100009FF0, symSize: 0x28 }
  - { offsetInCU: 0x18F7A, offset: 0x18F7A, size: 0x8, addend: 0x0, symName: __ZNKSt3__112basic_stringIcNS_11char_traitsIcEENS_9allocatorIcEEE16__get_short_sizeB7v160006Ev, symObjAddr: 0x6230, symBinAddr: 0x10000A018, symSize: 0x34 }
  - { offsetInCU: 0x18F9F, offset: 0x18F9F, size: 0x8, addend: 0x0, symName: __Z13WaveEstimatesRKNSt3__15arrayIdLm5EEES3_RdS4_, symObjAddr: 0x6264, symBinAddr: 0x10000A04C, symSize: 0x220 }
  - { offsetInCU: 0x190D7, offset: 0x190D7, size: 0x8, addend: 0x0, symName: __ZNSt3__16vectorINS_5arrayIdLm5EEENS_9allocatorIS2_EEEC1B7v160006Ev, symObjAddr: 0x6484, symBinAddr: 0x10000A26C, symSize: 0x2C }
  - { offsetInCU: 0x19101, offset: 0x19101, size: 0x8, addend: 0x0, symName: __ZNSt3__16vectorIdNS_9allocatorIdEEEC1Em, symObjAddr: 0x64B0, symBinAddr: 0x10000A298, symSize: 0x34 }
  - { offsetInCU: 0x1913C, offset: 0x1913C, size: 0x8, addend: 0x0, symName: __ZNSt3__16vectorIdNS_9allocatorIdEEEixB7v160006Em, symObjAddr: 0x64E4, symBinAddr: 0x10000A2CC, symSize: 0x24 }
  - { offsetInCU: 0x19173, offset: 0x19173, size: 0x8, addend: 0x0, symName: __ZNSt3__16vectorIdNS_9allocatorIdEEED1B7v160006Ev, symObjAddr: 0x6508, symBinAddr: 0x10000A2F0, symSize: 0x2C }
  - { offsetInCU: 0x1919D, offset: 0x1919D, size: 0x8, addend: 0x0, symName: __ZNSt3__16vectorINS_5arrayIdLm5EEENS_9allocatorIS2_EEEC2B7v160006Ev, symObjAddr: 0x6534, symBinAddr: 0x10000A31C, symSize: 0x54 }
  - { offsetInCU: 0x191C7, offset: 0x191C7, size: 0x8, addend: 0x0, symName: __ZNSt3__16vectorIdNS_9allocatorIdEEEC2Em, symObjAddr: 0x6588, symBinAddr: 0x10000A370, symSize: 0xE0 }
  - { offsetInCU: 0x19217, offset: 0x19217, size: 0x8, addend: 0x0, symName: __ZNSt3__117__compressed_pairIPdNS_9allocatorIdEEEC1B7v160006IDnNS_18__default_init_tagEEEOT_OT0_, symObjAddr: 0x6668, symBinAddr: 0x10000A450, symSize: 0x3C }
  - { offsetInCU: 0x1926F, offset: 0x1926F, size: 0x8, addend: 0x0, symName: __ZNSt3__16vectorIdNS_9allocatorIdEEE16__destroy_vectorC1ERS3_, symObjAddr: 0x66E4, symBinAddr: 0x10000A4CC, symSize: 0x34 }
  - { offsetInCU: 0x192A8, offset: 0x192A8, size: 0x8, addend: 0x0, symName: __ZNSt3__16vectorIdNS_9allocatorIdEEE11__vallocateB7v160006Em, symObjAddr: 0x6728, symBinAddr: 0x10000A510, symSize: 0xAC }
  - { offsetInCU: 0x192EC, offset: 0x192EC, size: 0x8, addend: 0x0, symName: __ZNSt3__16vectorIdNS_9allocatorIdEEE18__construct_at_endEm, symObjAddr: 0x67D4, symBinAddr: 0x10000A5BC, symSize: 0xC8 }
  - { offsetInCU: 0x1935E, offset: 0x1935E, size: 0x8, addend: 0x0, symName: __ZNSt3__128__exception_guard_exceptionsINS_6vectorIdNS_9allocatorIdEEE16__destroy_vectorEE10__completeB7v160006Ev, symObjAddr: 0x689C, symBinAddr: 0x10000A684, symSize: 0x1C }
  - { offsetInCU: 0x19384, offset: 0x19384, size: 0x8, addend: 0x0, symName: __ZNSt3__128__exception_guard_exceptionsINS_6vectorIdNS_9allocatorIdEEE16__destroy_vectorEED1B7v160006Ev, symObjAddr: 0x68B8, symBinAddr: 0x10000A6A0, symSize: 0x2C }
  - { offsetInCU: 0x193AE, offset: 0x193AE, size: 0x8, addend: 0x0, symName: __ZNSt3__117__compressed_pairIPdNS_9allocatorIdEEEC2B7v160006IDnNS_18__default_init_tagEEEOT_OT0_, symObjAddr: 0x68E4, symBinAddr: 0x10000A6CC, symSize: 0x40 }
  - { offsetInCU: 0x19406, offset: 0x19406, size: 0x8, addend: 0x0, symName: __ZNSt3__122__compressed_pair_elemIPdLi0ELb0EEC2B7v160006IDnvEEOT_, symObjAddr: 0x6924, symBinAddr: 0x10000A70C, symSize: 0x1C }
  - { offsetInCU: 0x19448, offset: 0x19448, size: 0x8, addend: 0x0, symName: __ZNSt3__122__compressed_pair_elemINS_9allocatorIdEELi1ELb1EEC2B7v160006ENS_18__default_init_tagE, symObjAddr: 0x6940, symBinAddr: 0x10000A728, symSize: 0x2C }
  - { offsetInCU: 0x1947D, offset: 0x1947D, size: 0x8, addend: 0x0, symName: __ZNSt3__19allocatorIdEC2B7v160006Ev, symObjAddr: 0x696C, symBinAddr: 0x10000A754, symSize: 0x2C }
  - { offsetInCU: 0x194A7, offset: 0x194A7, size: 0x8, addend: 0x0, symName: __ZNSt3__116__non_trivial_ifILb1ENS_9allocatorIdEEEC2B7v160006Ev, symObjAddr: 0x6998, symBinAddr: 0x10000A780, symSize: 0x14 }
  - { offsetInCU: 0x194D1, offset: 0x194D1, size: 0x8, addend: 0x0, symName: __ZNSt3__128__exception_guard_exceptionsINS_6vectorIdNS_9allocatorIdEEE16__destroy_vectorEEC1B7v160006ES5_, symObjAddr: 0x69AC, symBinAddr: 0x10000A794, symSize: 0x34 }
  - { offsetInCU: 0x19509, offset: 0x19509, size: 0x8, addend: 0x0, symName: __ZNSt3__128__exception_guard_exceptionsINS_6vectorIdNS_9allocatorIdEEE16__destroy_vectorEEC2B7v160006ES5_, symObjAddr: 0x69E0, symBinAddr: 0x10000A7C8, symSize: 0x24 }
  - { offsetInCU: 0x19541, offset: 0x19541, size: 0x8, addend: 0x0, symName: __ZNSt3__16vectorIdNS_9allocatorIdEEE16__destroy_vectorC2ERS3_, symObjAddr: 0x6A04, symBinAddr: 0x10000A7EC, symSize: 0x20 }
  - { offsetInCU: 0x1957A, offset: 0x1957A, size: 0x8, addend: 0x0, symName: __ZNKSt3__16vectorIdNS_9allocatorIdEEE8max_sizeEv, symObjAddr: 0x6A24, symBinAddr: 0x10000A80C, symSize: 0x60 }
  - { offsetInCU: 0x195A2, offset: 0x195A2, size: 0x8, addend: 0x0, symName: __ZNKSt3__16vectorIdNS_9allocatorIdEEE20__throw_length_errorB7v160006Ev, symObjAddr: 0x6A84, symBinAddr: 0x10000A86C, symSize: 0x1C }
  - { offsetInCU: 0x195C8, offset: 0x195C8, size: 0x8, addend: 0x0, symName: __ZNSt3__16vectorIdNS_9allocatorIdEEE7__allocB7v160006Ev, symObjAddr: 0x6AE0, symBinAddr: 0x10000A8C8, symSize: 0x28 }
  - { offsetInCU: 0x195EE, offset: 0x195EE, size: 0x8, addend: 0x0, symName: __ZNSt3__16vectorIdNS_9allocatorIdEEE9__end_capB7v160006Ev, symObjAddr: 0x6B08, symBinAddr: 0x10000A8F0, symSize: 0x28 }
  - { offsetInCU: 0x19614, offset: 0x19614, size: 0x8, addend: 0x0, symName: __ZNKSt3__16vectorIdNS_9allocatorIdEEE14__annotate_newB7v160006Em, symObjAddr: 0x6B30, symBinAddr: 0x10000A918, symSize: 0xAC }
  - { offsetInCU: 0x19653, offset: 0x19653, size: 0x8, addend: 0x0, symName: __ZNSt3__116allocator_traitsINS_9allocatorIdEEE8max_sizeB7v160006IS2_vEEmRKS2_, symObjAddr: 0x6BDC, symBinAddr: 0x10000A9C4, symSize: 0x24 }
  - { offsetInCU: 0x19681, offset: 0x19681, size: 0x8, addend: 0x0, symName: __ZNKSt3__16vectorIdNS_9allocatorIdEEE7__allocB7v160006Ev, symObjAddr: 0x6C00, symBinAddr: 0x10000A9E8, symSize: 0x28 }
  - { offsetInCU: 0x196A7, offset: 0x196A7, size: 0x8, addend: 0x0, symName: __ZNKSt3__19allocatorIdE8max_sizeB7v160006Ev, symObjAddr: 0x6C28, symBinAddr: 0x10000AA10, symSize: 0x14 }
  - { offsetInCU: 0x196CD, offset: 0x196CD, size: 0x8, addend: 0x0, symName: __ZNKSt3__117__compressed_pairIPdNS_9allocatorIdEEE6secondB7v160006Ev, symObjAddr: 0x6C3C, symBinAddr: 0x10000AA24, symSize: 0x24 }
  - { offsetInCU: 0x196F3, offset: 0x196F3, size: 0x8, addend: 0x0, symName: __ZNKSt3__122__compressed_pair_elemINS_9allocatorIdEELi1ELb1EE5__getB7v160006Ev, symObjAddr: 0x6C60, symBinAddr: 0x10000AA48, symSize: 0x14 }
  - { offsetInCU: 0x19719, offset: 0x19719, size: 0x8, addend: 0x0, symName: __ZNSt3__19allocatorIdE8allocateB7v160006Em, symObjAddr: 0x6C74, symBinAddr: 0x10000AA5C, symSize: 0x58 }
  - { offsetInCU: 0x1974D, offset: 0x1974D, size: 0x8, addend: 0x0, symName: __ZNSt3__117__compressed_pairIPdNS_9allocatorIdEEE6secondB7v160006Ev, symObjAddr: 0x6CCC, symBinAddr: 0x10000AAB4, symSize: 0x24 }
  - { offsetInCU: 0x19773, offset: 0x19773, size: 0x8, addend: 0x0, symName: __ZNSt3__122__compressed_pair_elemINS_9allocatorIdEELi1ELb1EE5__getB7v160006Ev, symObjAddr: 0x6CF0, symBinAddr: 0x10000AAD8, symSize: 0x14 }
  - { offsetInCU: 0x19799, offset: 0x19799, size: 0x8, addend: 0x0, symName: __ZNSt3__117__compressed_pairIPdNS_9allocatorIdEEE5firstB7v160006Ev, symObjAddr: 0x6D04, symBinAddr: 0x10000AAEC, symSize: 0x24 }
  - { offsetInCU: 0x197BF, offset: 0x197BF, size: 0x8, addend: 0x0, symName: __ZNSt3__122__compressed_pair_elemIPdLi0ELb0EE5__getB7v160006Ev, symObjAddr: 0x6D28, symBinAddr: 0x10000AB10, symSize: 0x14 }
  - { offsetInCU: 0x197E5, offset: 0x197E5, size: 0x8, addend: 0x0, symName: __ZNKSt3__16vectorIdNS_9allocatorIdEEE31__annotate_contiguous_containerB7v160006EPKvS5_S5_S5_, symObjAddr: 0x6D3C, symBinAddr: 0x10000AB24, symSize: 0x20 }
  - { offsetInCU: 0x19837, offset: 0x19837, size: 0x8, addend: 0x0, symName: __ZNKSt3__16vectorIdNS_9allocatorIdEEE4dataB7v160006Ev, symObjAddr: 0x6D5C, symBinAddr: 0x10000AB44, symSize: 0x28 }
  - { offsetInCU: 0x1985D, offset: 0x1985D, size: 0x8, addend: 0x0, symName: __ZNKSt3__16vectorIdNS_9allocatorIdEEE8capacityB7v160006Ev, symObjAddr: 0x6D84, symBinAddr: 0x10000AB6C, symSize: 0x40 }
  - { offsetInCU: 0x19883, offset: 0x19883, size: 0x8, addend: 0x0, symName: __ZNKSt3__16vectorIdNS_9allocatorIdEEE9__end_capB7v160006Ev, symObjAddr: 0x6DD8, symBinAddr: 0x10000ABC0, symSize: 0x28 }
  - { offsetInCU: 0x198A9, offset: 0x198A9, size: 0x8, addend: 0x0, symName: __ZNKSt3__117__compressed_pairIPdNS_9allocatorIdEEE5firstB7v160006Ev, symObjAddr: 0x6E00, symBinAddr: 0x10000ABE8, symSize: 0x24 }
  - { offsetInCU: 0x198CF, offset: 0x198CF, size: 0x8, addend: 0x0, symName: __ZNKSt3__122__compressed_pair_elemIPdLi0ELb0EE5__getB7v160006Ev, symObjAddr: 0x6E24, symBinAddr: 0x10000AC0C, symSize: 0x14 }
  - { offsetInCU: 0x1990E, offset: 0x1990E, size: 0x8, addend: 0x0, symName: __ZNSt3__16vectorIdNS_9allocatorIdEEE21_ConstructTransactionC1B7v160006ERS3_m, symObjAddr: 0x6E38, symBinAddr: 0x10000AC20, symSize: 0x3C }
  - { offsetInCU: 0x19956, offset: 0x19956, size: 0x8, addend: 0x0, symName: __ZNSt3__116allocator_traitsINS_9allocatorIdEEE9constructB7v160006IdJEvEEvRS2_PT_DpOT0_, symObjAddr: 0x6E74, symBinAddr: 0x10000AC5C, symSize: 0x2C }
  - { offsetInCU: 0x19998, offset: 0x19998, size: 0x8, addend: 0x0, symName: __ZNSt3__16vectorIdNS_9allocatorIdEEE21_ConstructTransactionD1B7v160006Ev, symObjAddr: 0x6EA0, symBinAddr: 0x10000AC88, symSize: 0x2C }
  - { offsetInCU: 0x199C2, offset: 0x199C2, size: 0x8, addend: 0x0, symName: __ZNSt3__16vectorIdNS_9allocatorIdEEE21_ConstructTransactionC2B7v160006ERS3_m, symObjAddr: 0x6ECC, symBinAddr: 0x10000ACB4, symSize: 0x44 }
  - { offsetInCU: 0x19A0A, offset: 0x19A0A, size: 0x8, addend: 0x0, symName: __ZNSt3__19allocatorIdE9constructB7v160006IdJEEEvPT_DpOT0_, symObjAddr: 0x6F10, symBinAddr: 0x10000ACF8, symSize: 0x20 }
  - { offsetInCU: 0x19A4C, offset: 0x19A4C, size: 0x8, addend: 0x0, symName: __ZNSt3__16vectorIdNS_9allocatorIdEEE21_ConstructTransactionD2B7v160006Ev, symObjAddr: 0x6F30, symBinAddr: 0x10000AD18, symSize: 0x20 }
  - { offsetInCU: 0x19A76, offset: 0x19A76, size: 0x8, addend: 0x0, symName: __ZNSt3__128__exception_guard_exceptionsINS_6vectorIdNS_9allocatorIdEEE16__destroy_vectorEED2B7v160006Ev, symObjAddr: 0x6F50, symBinAddr: 0x10000AD38, symSize: 0x50 }
  - { offsetInCU: 0x19AA0, offset: 0x19AA0, size: 0x8, addend: 0x0, symName: __ZNSt3__16vectorIdNS_9allocatorIdEEE16__destroy_vectorclB7v160006Ev, symObjAddr: 0x6FA0, symBinAddr: 0x10000AD88, symSize: 0x9C }
  - { offsetInCU: 0x19AC6, offset: 0x19AC6, size: 0x8, addend: 0x0, symName: __ZNKSt3__16vectorIdNS_9allocatorIdEEE17__annotate_deleteB7v160006Ev, symObjAddr: 0x703C, symBinAddr: 0x10000AE24, symSize: 0xB8 }
  - { offsetInCU: 0x19AEC, offset: 0x19AEC, size: 0x8, addend: 0x0, symName: __ZNSt3__16vectorIdNS_9allocatorIdEEE7__clearB7v160006Ev, symObjAddr: 0x7104, symBinAddr: 0x10000AEEC, symSize: 0x28 }
  - { offsetInCU: 0x19B12, offset: 0x19B12, size: 0x8, addend: 0x0, symName: __ZNSt3__116allocator_traitsINS_9allocatorIdEEE10deallocateB7v160006ERS2_Pdm, symObjAddr: 0x712C, symBinAddr: 0x10000AF14, symSize: 0x34 }
  - { offsetInCU: 0x19B54, offset: 0x19B54, size: 0x8, addend: 0x0, symName: __ZNKSt3__16vectorIdNS_9allocatorIdEEE4sizeB7v160006Ev, symObjAddr: 0x7160, symBinAddr: 0x10000AF48, symSize: 0x28 }
  - { offsetInCU: 0x19B7A, offset: 0x19B7A, size: 0x8, addend: 0x0, symName: __ZNSt3__16vectorIdNS_9allocatorIdEEE22__base_destruct_at_endB7v160006EPd, symObjAddr: 0x7188, symBinAddr: 0x10000AF70, symSize: 0x8C }
  - { offsetInCU: 0x19BBE, offset: 0x19BBE, size: 0x8, addend: 0x0, symName: __ZNSt3__116allocator_traitsINS_9allocatorIdEEE7destroyB7v160006IdvEEvRS2_PT_, symObjAddr: 0x7214, symBinAddr: 0x10000AFFC, symSize: 0x2C }
  - { offsetInCU: 0x19BFB, offset: 0x19BFB, size: 0x8, addend: 0x0, symName: __ZNSt3__19allocatorIdE7destroyB7v160006EPd, symObjAddr: 0x7240, symBinAddr: 0x10000B028, symSize: 0x14 }
  - { offsetInCU: 0x19C2F, offset: 0x19C2F, size: 0x8, addend: 0x0, symName: __ZNSt3__19allocatorIdE10deallocateB7v160006EPdm, symObjAddr: 0x7254, symBinAddr: 0x10000B03C, symSize: 0x40 }
  - { offsetInCU: 0x19C71, offset: 0x19C71, size: 0x8, addend: 0x0, symName: __ZNSt3__16vectorIdNS_9allocatorIdEEED2B7v160006Ev, symObjAddr: 0x7294, symBinAddr: 0x10000B07C, symSize: 0x44 }
  - { offsetInCU: 0x19C9A, offset: 0x19C9A, size: 0x8, addend: 0x0, symName: __Z14transmissiveBCRNSt3__16vectorIdNS_9allocatorIdEEEE, symObjAddr: 0x72D8, symBinAddr: 0x10000B0C0, symSize: 0x88 }
  - { offsetInCU: 0x19CD4, offset: 0x19CD4, size: 0x8, addend: 0x0, symName: _main, symObjAddr: 0x7360, symBinAddr: 0x10000B148, symSize: 0x29C }
  - { offsetInCU: 0x19D3D, offset: 0x19D3D, size: 0x8, addend: 0x0, symName: __ZNSt3__112basic_stringIcNS_11char_traitsIcEENS_9allocatorIcEEEC1B7v160006IDnEEPKc, symObjAddr: 0x75FC, symBinAddr: 0x10000B3E4, symSize: 0x34 }
  - { offsetInCU: 0x19D7B, offset: 0x19D7B, size: 0x8, addend: 0x0, symName: __ZNSt3__112basic_stringIcNS_11char_traitsIcEENS_9allocatorIcEEEC2B7v160006IDnEEPKc, symObjAddr: 0x7630, symBinAddr: 0x10000B418, symSize: 0x60 }
...
